(dp1
((I3
I1
I1
I0
I1
I1
I0
I1
tI1
tp2
I-100
s((I1
I0
I0
I0
I1
I1
I0
I0
tI2
tp3
F-1.3786830915592012
s((I0
I1
I3
I0
I0
I0
I0
I0
tI3
tp4
F-4.8789349497015433
s((I0
I1
I0
I0
I0
I1
I1
I1
tI0
tp5
F-1.9498937494565949
s((I0
I1
I3
I2
I0
I1
I1
I1
tI4
tp6
I-100
s((I0
I3
I0
I1
I1
I2
I0
I0
tI0
tp7
I-100
s((I1
I2
I0
I1
I0
I1
I0
I3
tI7
tp8
I-100
s((I1
I1
I3
I0
I0
I0
I0
I1
tI0
tp9
F-3.868346319558531
s((I1
I2
I3
I1
I1
I1
I0
I1
tI0
tp10
I-100
s((I0
I0
I0
I1
I1
I0
I0
I1
tI7
tp11
F-2.3311436838446662
s((I0
I0
I0
I1
I3
I1
I1
I1
tI6
tp12
I-100
s((I1
I2
I0
I1
I1
I1
I0
I3
tI4
tp13
I-100
s((I1
I1
I1
I0
I0
I1
I1
I3
tI6
tp14
I-100
s((I1
I1
I1
I0
I0
I0
I0
I0
tI2
tp15
F-11.567764701522817
s((I0
I1
I1
I3
I0
I0
I1
I0
tI7
tp16
I-100
s((I1
I0
I1
I0
I0
I0
I1
I3
tI3
tp17
I-100
s((I2
I0
I1
I1
I0
I1
I1
I3
tI2
tp18
I-100
s((I1
I0
I0
I3
I0
I1
I1
I1
tI6
tp19
I-100
s((I1
I0
I0
I3
I0
I1
I1
I0
tI1
tp20
I-100
s((I1
I1
I1
I0
I0
I0
I0
I1
tI4
tp21
F-2.8090327290861703
s((I1
I1
I1
I0
I3
I2
I0
I1
tI4
tp22
I-100
s((I1
I0
I1
I3
I1
I0
I0
I1
tI0
tp23
F-100.47798114065704
s((I0
I1
I1
I0
I1
I0
I3
I0
tI0
tp24
I-100
s((I3
I1
I0
I0
I0
I2
I1
I1
tI7
tp25
I-100
s((I3
I1
I1
I0
I1
I0
I0
I2
tI0
tp26
I-100
s((I1
I0
I0
I1
I0
I1
I1
I3
tI1
tp27
I-100
s((I0
I0
I3
I0
I1
I0
I1
I1
tI1
tp28
F-4.6314808230518203
s((I0
I0
I1
I1
I0
I0
I0
I1
tI3
tp29
F-2.0155906374148747
s((I0
I1
I3
I0
I0
I0
I0
I0
tI4
tp30
I-100
s((I1
I1
I1
I0
I2
I0
I1
I3
tI1
tp31
I-1
s((I0
I0
I1
I1
I0
I1
I0
I0
tI1
tp32
F-2.5348345176839868
s((I1
I3
I1
I1
I1
I0
I2
I1
tI5
tp33
I-100
s((I1
I3
I1
I0
I1
I0
I2
I1
tI1
tp34
I-1
s((I2
I1
I1
I0
I3
I1
I1
I1
tI3
tp35
I-100
s((I1
I0
I0
I1
I0
I1
I3
I1
tI3
tp36
I-100
s((I1
I2
I0
I1
I1
I1
I3
I1
tI2
tp37
I-100
s((I0
I0
I0
I0
I0
I1
I1
I0
tI0
tp38
F-2.6810815698424708
s((I1
I1
I1
I0
I0
I0
I1
I0
tI0
tp39
F-10.804375129365003
s((I1
I0
I1
I1
I1
I1
I0
I0
tI2
tp40
F-11.540857966921001
s((I1
I3
I1
I1
I1
I1
I2
I1
tI1
tp41
I-100
s((I0
I1
I1
I3
I0
I0
I1
I0
tI0
tp42
I-100
s((I0
I3
I1
I0
I0
I0
I0
I1
tI0
tp43
I-100
s((I1
I1
I1
I1
I0
I0
I0
I0
tI6
tp44
F-2.2888522633842099
s((I1
I0
I1
I3
I1
I0
I1
I1
tI0
tp45
F-100.32610108824562
s((I2
I0
I0
I0
I0
I1
I1
I3
tI2
tp46
I-100
s((I0
I1
I1
I0
I0
I3
I1
I0
tI2
tp47
I-100
s((I1
I0
I0
I1
I0
I1
I3
I0
tI3
tp48
I-100
s((I1
I1
I1
I0
I0
I1
I1
I0
tI5
tp49
F-3.5594155829289069
s((I1
I0
I0
I3
I0
I1
I1
I0
tI6
tp50
I-100
s((I1
I2
I1
I1
I1
I1
I0
I0
tI4
tp51
I-1
s((I1
I0
I1
I1
I1
I1
I0
I1
tI0
tp52
F-3.2104921996373497
s((I1
I0
I3
I0
I0
I1
I1
I1
tI0
tp53
F-4.4157453690152861
s((I1
I0
I1
I1
I3
I1
I0
I1
tI7
tp54
F-100.14993981589373
s((I0
I1
I0
I0
I0
I1
I0
I1
tI5
tp55
F-2.5138982545756985
s((I0
I3
I0
I0
I0
I1
I0
I0
tI7
tp56
I-100
s((I1
I1
I3
I1
I0
I0
I0
I0
tI7
tp57
I-100
s((I0
I1
I0
I0
I2
I0
I1
I1
tI0
tp58
I-1
s((I1
I0
I2
I3
I1
I1
I0
I0
tI6
tp59
I-100
s((I1
I0
I0
I0
I1
I1
I0
I3
tI5
tp60
F-4.447086478565784
s((I0
I0
I3
I0
I1
I0
I1
I1
tI6
tp61
I-100
s((I0
I0
I1
I0
I1
I0
I0
I1
tI5
tp62
F-3.9636165337270408
s((I0
I1
I0
I0
I0
I3
I1
I1
tI4
tp63
F-4.8466817385826744
s((I0
I0
I1
I1
I0
I1
I1
I0
tI1
tp64
F-2.5346228289760653
s((I0
I0
I1
I0
I1
I1
I1
I1
tI1
tp65
F-18.557519017209401
s((I0
I0
I3
I0
I1
I1
I0
I0
tI4
tp66
I-100
s((I1
I1
I0
I0
I0
I0
I2
I1
tI6
tp67
I-1
s((I0
I3
I0
I1
I1
I2
I0
I1
tI0
tp68
I-100
s((I3
I1
I1
I0
I0
I0
I1
I0
tI5
tp69
I-100
s((I1
I0
I2
I3
I1
I1
I1
I1
tI4
tp70
I-100
s((I1
I0
I3
I0
I1
I1
I0
I2
tI3
tp71
F49.732023671969024
s((I0
I1
I1
I0
I0
I1
I3
I1
tI3
tp72
I-100
s((I3
I0
I1
I1
I1
I1
I0
I1
tI2
tp73
F0.14482957963216669
s((I1
I0
I1
I1
I1
I1
I0
I0
tI5
tp74
F-4.8847260748195573
s((I1
I0
I0
I1
I0
I1
I0
I3
tI5
tp75
F-5.6157006569345977
s((I1
I2
I3
I0
I1
I0
I1
I1
tI6
tp76
I-100
s((I0
I0
I3
I1
I0
I1
I1
I1
tI1
tp77
I-100
s((I0
I1
I2
I0
I0
I0
I1
I3
tI0
tp78
I-1
s((I2
I0
I0
I0
I0
I1
I1
I3
tI5
tp79
I-1
s((I3
I1
I1
I2
I1
I1
I0
I1
tI7
tp80
I-100
s((I1
I1
I0
I1
I0
I3
I0
I1
tI1
tp81
I-100
s((I0
I0
I0
I1
I1
I0
I0
I0
tI6
tp82
F-2.2546962186327888
s((I1
I0
I3
I1
I0
I0
I0
I1
tI1
tp83
F-4.6225997268478691
s((I1
I0
I0
I0
I2
I1
I1
I1
tI4
tp84
I50
s((I0
I0
I1
I1
I1
I1
I3
I1
tI2
tp85
I-100
s((I1
I0
I1
I1
I3
I1
I0
I1
tI0
tp86
F-100.15365941751395
s((I1
I0
I1
I3
I0
I0
I1
I0
tI3
tp87
F-4.7492346441206674
s((I1
I0
I1
I1
I0
I1
I0
I1
tI7
tp88
F-10.474010789851901
s((I1
I0
I0
I3
I0
I1
I1
I2
tI3
tp89
F48.973281734113279
s((I0
I3
I0
I0
I0
I1
I0
I0
tI0
tp90
I-100
s((I1
I0
I2
I3
I0
I1
I1
I0
tI7
tp91
I-100
s((I1
I3
I0
I1
I0
I1
I1
I0
tI4
tp92
I-100
s((I1
I0
I0
I0
I0
I1
I1
I3
tI6
tp93
F-4.651464691887031
s((I1
I1
I0
I1
I1
I1
I1
I1
tI2
tp94
I-1
s((I0
I3
I1
I0
I0
I0
I1
I1
tI6
tp95
I-100
s((I3
I1
I1
I0
I1
I0
I2
I0
tI2
tp96
I50
s((I1
I0
I3
I0
I2
I1
I1
I0
tI6
tp97
I-100
s((I0
I1
I1
I0
I1
I0
I0
I3
tI3
tp98
I-100
s((I0
I0
I0
I0
I1
I1
I0
I0
tI1
tp99
F-2.2923475251112975
s((I1
I1
I3
I0
I0
I1
I1
I1
tI5
tp100
I-100
s((I0
I0
I0
I0
I1
I1
I0
I3
tI4
tp101
I-100
s((I0
I0
I1
I1
I0
I1
I1
I0
tI6
tp102
F-10.9
s((I1
I0
I3
I1
I1
I1
I0
I0
tI4
tp103
I-100
s((I0
I2
I0
I0
I1
I3
I1
I1
tI5
tp104
I-1
s((I0
I1
I0
I0
I0
I0
I1
I0
tI2
tp105
F-1.9372791661661002
s((I1
I0
I0
I1
I1
I1
I0
I0
tI0
tp106
F-1.5110384058100002
s((I1
I1
I1
I3
I0
I1
I1
I1
tI6
tp107
I-100
s((I0
I3
I0
I1
I0
I1
I1
I1
tI2
tp108
F-101.36958418834494
s((I0
I2
I0
I1
I1
I0
I0
I1
tI5
tp109
I-1
s((I0
I1
I0
I0
I3
I0
I1
I0
tI2
tp110
I-100
s((I0
I0
I1
I1
I0
I1
I0
I3
tI7
tp111
F-5.0630848525411274
s((I1
I1
I1
I3
I0
I0
I0
I1
tI0
tp112
I-100
s((I0
I0
I1
I1
I1
I1
I0
I1
tI4
tp113
F-4.1111031562430398
s((I1
I3
I0
I0
I1
I0
I1
I1
tI1
tp114
F-4.1945219221726404
s((I0
I1
I1
I2
I1
I0
I0
I0
tI1
tp115
I-1
s((I1
I0
I1
I1
I0
I1
I3
I1
tI0
tp116
I-100
s((I0
I0
I1
I0
I0
I0
I1
I1
tI4
tp117
F-11.53714892352086
s((I3
I1
I0
I0
I2
I0
I0
I0
tI4
tp118
F40.980986117088491
s((I1
I1
I0
I0
I0
I0
I3
I1
tI5
tp119
F-4.6626208471999462
s((I0
I1
I0
I2
I0
I1
I1
I1
tI4
tp120
I-1
s((I1
I1
I0
I1
I3
I0
I0
I1
tI2
tp121
I-100
s((I1
I1
I1
I1
I0
I0
I0
I3
tI5
tp122
I-100
s((I3
I1
I0
I0
I0
I0
I1
I2
tI4
tp123
I-1
s((I1
I1
I1
I3
I2
I0
I1
I1
tI1
tp124
I-100
s((I1
I1
I0
I1
I1
I1
I1
I1
tI5
tp125
I-1
s((I1
I0
I0
I3
I1
I1
I2
I0
tI7
tp126
I-100
s((I1
I0
I1
I0
I1
I0
I1
I1
tI6
tp127
F-3.4893216125100337
s((I1
I0
I0
I1
I1
I1
I0
I0
tI7
tp128
F-1.5181197449419002
s((I1
I0
I0
I1
I3
I0
I0
I1
tI3
tp129
I-100
s((I0
I3
I1
I1
I1
I1
I0
I1
tI4
tp130
I-100
s((I1
I1
I3
I0
I0
I1
I1
I1
tI2
tp131
I-100
s((I1
I1
I0
I1
I0
I2
I0
I1
tI1
tp132
F49.888974173900003
s((I1
I1
I1
I1
I0
I1
I3
I1
tI4
tp133
F-100.40792539327899
s((I0
I0
I0
I1
I1
I3
I0
I1
tI5
tp134
F-3.3673707264266626
s((I0
I0
I0
I2
I0
I1
I0
I0
tI2
tp135
I-1
s((I1
I3
I1
I0
I1
I2
I1
I1
tI1
tp136
I50
s((I1
I0
I1
I1
I1
I1
I2
I1
tI6
tp137
I-1
s((I1
I0
I3
I0
I1
I0
I1
I1
tI5
tp138
I-100
s((I0
I1
I1
I0
I1
I3
I0
I0
tI3
tp139
F-4.5398287014537537
s((I1
I3
I1
I1
I1
I1
I0
I0
tI3
tp140
F-2.68776414841621
s((I1
I1
I1
I0
I0
I1
I0
I0
tI5
tp141
F-3.2035801647470485
s((I0
I1
I0
I0
I3
I0
I1
I0
tI5
tp142
I-100
s((I0
I0
I3
I1
I1
I0
I0
I0
tI6
tp143
I-100
s((I0
I3
I1
I1
I0
I1
I0
I0
tI2
tp144
F-4.6865431177314427
s((I0
I0
I2
I0
I1
I1
I0
I0
tI7
tp145
I-100
s((I0
I0
I0
I1
I0
I1
I1
I1
tI5
tp146
F-5.5011987683352794
s((I0
I3
I1
I0
I1
I0
I0
I1
tI3
tp147
I-100
s((I1
I0
I0
I1
I3
I1
I0
I1
tI0
tp148
F-100.44257495178574
s((I1
I3
I0
I1
I0
I0
I0
I1
tI6
tp149
I-100
s((I0
I0
I1
I1
I1
I1
I0
I1
tI3
tp150
F-4.5668900025960379
s((I1
I0
I0
I1
I3
I1
I1
I0
tI6
tp151
I-100
s((I1
I3
I2
I1
I0
I0
I0
I1
tI5
tp152
I-100
s((I1
I1
I1
I0
I0
I1
I1
I3
tI4
tp153
I-100
s((I0
I2
I0
I0
I0
I1
I1
I3
tI0
tp154
I-1
s((I3
I1
I0
I0
I0
I0
I1
I2
tI3
tp155
F49.666628808007587
s((I3
I0
I1
I1
I0
I1
I1
I0
tI6
tp156
I-100
s((I1
I1
I0
I2
I0
I1
I1
I1
tI0
tp157
I50
s((I1
I2
I1
I1
I1
I1
I3
I0
tI0
tp158
I-100
s((I1
I0
I1
I0
I1
I0
I1
I1
tI1
tp159
F-10.990000000000002
s((I1
I2
I1
I1
I1
I1
I3
I1
tI6
tp160
F48.575595766408163
s((I1
I2
I1
I1
I1
I1
I0
I3
tI0
tp161
I-100
s((I1
I0
I3
I1
I0
I1
I2
I0
tI1
tp162
I-100
s((I1
I0
I0
I1
I3
I0
I0
I1
tI4
tp163
I-100
s((I0
I1
I1
I0
I0
I1
I0
I1
tI4
tp164
F-1.618785456057636
s((I1
I1
I0
I0
I3
I0
I0
I1
tI4
tp165
I-100
s((I0
I0
I1
I1
I0
I3
I2
I1
tI1
tp166
I-100
s((I0
I0
I0
I1
I1
I3
I0
I1
tI2
tp167
I-100
s((I1
I2
I0
I0
I1
I0
I1
I1
tI1
tp168
I-1
s((I1
I0
I0
I1
I1
I1
I3
I0
tI0
tp169
I-100
s((I3
I0
I1
I1
I0
I0
I0
I1
tI0
tp170
I-100
s((I1
I1
I3
I2
I0
I1
I1
I1
tI0
tp171
I50
s((I3
I1
I0
I0
I0
I0
I2
I0
tI2
tp172
F49.510623477759594
s((I0
I1
I0
I0
I3
I1
I1
I1
tI7
tp173
F-3.6991523334947893
s((I1
I0
I0
I1
I0
I1
I1
I0
tI3
tp174
F-3.525712124409722
s((I1
I0
I0
I1
I1
I1
I0
I3
tI5
tp175
F-5.1762915285138584
s((I0
I0
I1
I0
I2
I3
I1
I1
tI7
tp176
I-1
s((I1
I3
I1
I1
I1
I1
I0
I0
tI4
tp177
I-100
s((I0
I3
I0
I1
I1
I0
I0
I1
tI0
tp178
I-100
s((I1
I0
I3
I1
I1
I1
I0
I0
tI5
tp179
I-100
s((I2
I1
I1
I0
I1
I0
I0
I3
tI6
tp180
I-100
s((I1
I1
I1
I0
I0
I1
I1
I1
tI5
tp181
F-2.8971999275105835
s((I1
I0
I0
I1
I3
I1
I0
I1
tI7
tp182
F-100.47009966177252
s((I1
I1
I1
I0
I0
I3
I1
I2
tI4
tp183
I-1
s((I2
I0
I1
I0
I0
I3
I1
I1
tI5
tp184
I-100
s((I1
I1
I1
I3
I0
I1
I1
I2
tI6
tp185
I-100
s((I1
I1
I0
I2
I3
I1
I1
I1
tI7
tp186
I-100
s((I1
I1
I0
I1
I0
I3
I0
I2
tI5
tp187
I-1
s((I0
I1
I0
I0
I3
I0
I1
I1
tI3
tp188
I-100
s((I1
I0
I0
I1
I1
I1
I0
I0
tI3
tp189
F-1.5541990031900075
s((I0
I0
I0
I0
I1
I1
I3
I2
tI3
tp190
I-100
s((I0
I0
I1
I1
I3
I1
I0
I0
tI7
tp191
F-4.4505116638188955
s((I3
I1
I0
I0
I0
I1
I1
I1
tI6
tp192
I-100
s((I0
I3
I0
I1
I1
I0
I0
I0
tI5
tp193
I-100
s((I0
I0
I2
I1
I3
I1
I1
I1
tI5
tp194
I-100
s((I1
I0
I0
I1
I1
I1
I3
I0
tI7
tp195
I-100
s((I0
I1
I0
I0
I0
I3
I1
I0
tI5
tp196
F-4.1906233058947633
s((I3
I0
I1
I0
I1
I0
I0
I1
tI1
tp197
F-5.6887494143125865
s((I0
I1
I3
I0
I0
I0
I1
I0
tI4
tp198
I-100
s((I1
I1
I1
I1
I0
I1
I0
I1
tI1
tp199
F-19.258286934539115
s((I0
I0
I1
I0
I0
I0
I0
I1
tI7
tp200
F-2.1073707899007954
s((I1
I1
I1
I0
I0
I0
I1
I3
tI6
tp201
I-100
s((I1
I3
I1
I0
I0
I0
I1
I2
tI5
tp202
I-100
s((I1
I1
I1
I1
I3
I0
I0
I0
tI0
tp203
I-100
s((I1
I0
I0
I3
I1
I0
I1
I1
tI3
tp204
I-100
s((I0
I0
I2
I0
I0
I1
I1
I0
tI3
tp205
I-1
s((I0
I1
I3
I0
I0
I0
I2
I0
tI6
tp206
I-100
s((I0
I1
I3
I0
I0
I1
I0
I1
tI6
tp207
I-100
s((I0
I0
I3
I1
I1
I0
I0
I1
tI7
tp208
F-5.1429683674782227
s((I1
I0
I3
I1
I1
I1
I2
I1
tI6
tp209
I-100
s((I1
I1
I1
I0
I0
I0
I3
I1
tI0
tp210
F-100.09550710000001
s((I0
I0
I3
I0
I0
I1
I0
I0
tI6
tp211
I-100
s((I1
I1
I2
I3
I0
I1
I1
I1
tI2
tp212
I-100
s((I0
I1
I1
I0
I1
I2
I0
I0
tI7
tp213
I-1
s((I3
I1
I0
I0
I0
I1
I1
I1
tI1
tp214
I-100
s((I2
I0
I0
I1
I3
I1
I1
I1
tI5
tp215
I-100
s((I1
I1
I0
I3
I0
I1
I1
I1
tI2
tp216
I-100
s((I2
I1
I3
I0
I0
I1
I1
I1
tI5
tp217
I-100
s((I1
I1
I0
I0
I3
I1
I1
I1
tI7
tp218
I-100
s((I0
I1
I1
I0
I0
I0
I1
I3
tI2
tp219
I-100
s((I0
I0
I1
I0
I3
I0
I0
I1
tI4
tp220
I-100
s((I1
I1
I1
I0
I0
I0
I0
I3
tI2
tp221
I-100
s((I0
I2
I0
I0
I1
I1
I0
I0
tI4
tp222
I-1
s((I3
I1
I0
I0
I2
I1
I1
I1
tI2
tp223
I-100
s((I0
I1
I1
I0
I1
I1
I3
I1
tI3
tp224
I-100
s((I0
I0
I0
I1
I1
I3
I0
I0
tI5
tp225
F-2.6180567604080309
s((I0
I1
I3
I0
I0
I0
I1
I0
tI3
tp226
F-4.52678051173047
s((I3
I0
I0
I0
I2
I1
I0
I0
tI5
tp227
I-1
s((I1
I1
I1
I1
I3
I1
I0
I1
tI5
tp228
F-100.98084747832549
s((I1
I1
I1
I0
I0
I1
I0
I3
tI0
tp229
F-5.072147572160806
s((I0
I0
I1
I0
I3
I0
I1
I1
tI1
tp230
F-4.6132082956258014
s((I1
I0
I0
I1
I0
I3
I0
I1
tI3
tp231
I-100
s((I0
I0
I1
I3
I0
I0
I1
I1
tI3
tp232
I-100
s((I1
I1
I1
I3
I2
I1
I1
I1
tI6
tp233
I-100
s((I0
I1
I0
I2
I0
I1
I1
I1
tI7
tp234
I-1
s((I0
I0
I1
I0
I0
I3
I0
I1
tI5
tp235
I-100
s((I3
I0
I0
I1
I1
I0
I0
I0
tI3
tp236
F-4.1962652319001181
s((I0
I0
I1
I0
I1
I0
I2
I1
tI6
tp237
I-1
s((I0
I1
I0
I0
I0
I1
I3
I1
tI2
tp238
I-100
s((I1
I0
I3
I0
I0
I1
I1
I0
tI4
tp239
I-100
s((I1
I1
I1
I3
I2
I1
I1
I0
tI2
tp240
I-100
s((I0
I1
I3
I0
I0
I1
I0
I1
tI7
tp241
F-3.613538493789318
s((I1
I1
I3
I1
I0
I2
I0
I1
tI2
tp242
I-1
s((I1
I1
I0
I1
I2
I0
I0
I1
tI2
tp243
I-1
s((I0
I0
I0
I1
I1
I0
I2
I0
tI4
tp244
I-1
s((I1
I1
I1
I0
I2
I0
I1
I1
tI1
tp245
I-1
s((I1
I0
I3
I1
I1
I1
I0
I1
tI7
tp246
I-100
s((I0
I0
I1
I1
I0
I1
I0
I2
tI6
tp247
I-100
s((I1
I0
I1
I0
I0
I0
I1
I0
tI0
tp248
F-1.6410411420332993
s((I1
I1
I1
I3
I0
I0
I0
I0
tI0
tp249
I-100
s((I0
I1
I1
I0
I3
I1
I1
I1
tI7
tp250
F-1.3188109814148068
s((I0
I0
I1
I0
I3
I0
I1
I1
tI6
tp251
I-100
s((I1
I0
I3
I1
I1
I1
I0
I2
tI7
tp252
I-100
s((I0
I1
I0
I2
I0
I1
I1
I1
tI0
tp253
F49.823037874466102
s((I1
I0
I3
I0
I1
I1
I1
I1
tI6
tp254
I-100
s((I1
I3
I1
I1
I0
I1
I1
I1
tI4
tp255
F-100.16336659542586
s((I0
I1
I0
I0
I3
I2
I1
I1
tI4
tp256
I-100
s((I1
I1
I1
I1
I0
I0
I0
I2
tI1
tp257
I-1
s((I0
I1
I0
I3
I0
I0
I1
I0
tI1
tp258
I-100
s((I0
I1
I1
I0
I3
I1
I1
I1
tI0
tp259
F-10
s((I0
I1
I1
I0
I1
I0
I0
I0
tI7
tp260
I-100
s((I0
I0
I3
I2
I1
I1
I0
I0
tI5
tp261
I-100
s((I0
I1
I0
I0
I0
I0
I1
I1
tI7
tp262
F-10.998100000000001
s((I1
I0
I0
I0
I1
I1
I1
I1
tI4
tp263
F-1.9619407652758138
s((I1
I3
I1
I1
I0
I1
I0
I0
tI6
tp264
I-100
s((I1
I3
I1
I1
I1
I0
I0
I1
tI2
tp265
F-4.947941625492958
s((I3
I1
I0
I0
I0
I0
I1
I0
tI0
tp266
I-100
s((I1
I0
I0
I1
I3
I1
I2
I1
tI7
tp267
I-100
s((I0
I1
I1
I0
I0
I2
I1
I3
tI7
tp268
I-1
s((I2
I0
I0
I0
I1
I3
I1
I1
tI7
tp269
I50
s((I1
I0
I0
I0
I1
I0
I1
I1
tI4
tp270
F-1.77681366220963
s((I1
I0
I3
I1
I1
I1
I0
I1
tI0
tp271
I-100
s((I3
I1
I1
I0
I0
I1
I0
I1
tI1
tp272
I-100
s((I1
I3
I1
I1
I0
I1
I0
I1
tI4
tp273
I-100
s((I3
I0
I1
I0
I0
I0
I1
I1
tI0
tp274
I-100
s((I0
I0
I1
I1
I0
I1
I0
I2
tI2
tp275
I-1
s((I0
I1
I0
I0
I0
I0
I0
I0
tI1
tp276
F-1.7064338328421551
s((I1
I0
I0
I0
I1
I1
I0
I0
tI6
tp277
I-100
s((I3
I1
I2
I0
I0
I1
I1
I1
tI6
tp278
I-100
s((I1
I0
I1
I1
I0
I1
I3
I0
tI1
tp279
I-100
s((I1
I1
I3
I1
I0
I0
I2
I0
tI5
tp280
I-100
s((I1
I1
I1
I0
I1
I1
I3
I1
tI1
tp281
F-100.96304592658443
s((I1
I0
I0
I1
I0
I1
I0
I1
tI3
tp282
F-10.686309254535264
s((I1
I1
I1
I3
I0
I0
I1
I1
tI0
tp283
I-100
s((I1
I0
I3
I0
I1
I1
I1
I1
tI3
tp284
I-100
s((I2
I1
I0
I0
I0
I1
I3
I1
tI4
tp285
I-100
s((I1
I3
I1
I0
I1
I0
I0
I1
tI2
tp286
F-10
s((I1
I0
I3
I1
I0
I1
I1
I0
tI3
tp287
F-5.5616391056020404
s((I0
I0
I1
I1
I0
I1
I3
I0
tI3
tp288
I-100
s((I3
I0
I0
I1
I0
I1
I1
I1
tI0
tp289
I-100
s((I0
I1
I1
I2
I3
I1
I1
I1
tI7
tp290
I-1
s((I1
I0
I1
I1
I0
I1
I0
I3
tI3
tp291
I-100
s((I1
I3
I1
I0
I1
I0
I0
I1
tI6
tp292
I-100
s((I0
I0
I3
I1
I2
I1
I1
I1
tI5
tp293
I-100
s((I0
I0
I0
I0
I0
I1
I0
I0
tI4
tp294
F-4.0187701208527962
s((I1
I2
I0
I0
I1
I1
I0
I0
tI6
tp295
I50
s((I3
I0
I1
I1
I1
I1
I2
I1
tI3
tp296
I-100
s((I0
I0
I1
I1
I0
I1
I1
I3
tI6
tp297
F-4.789726488229193
s((I0
I0
I1
I0
I3
I2
I0
I1
tI0
tp298
I-1
s((I1
I1
I1
I1
I0
I3
I0
I0
tI4
tp299
F-4.6278063262610676
s((I1
I2
I1
I1
I1
I3
I0
I1
tI6
tp300
F48.717755059283505
s((I0
I0
I1
I2
I0
I3
I0
I1
tI3
tp301
I-100
s((I0
I0
I1
I1
I0
I1
I2
I0
tI6
tp302
I-1
s((I1
I1
I0
I1
I0
I0
I0
I0
tI4
tp303
F-2.7398095423155682
s((I0
I1
I3
I0
I0
I0
I0
I2
tI1
tp304
I-1
s((I1
I1
I2
I0
I0
I0
I0
I1
tI7
tp305
I-1
s((I3
I0
I0
I0
I1
I1
I0
I2
tI0
tp306
I-100
s((I1
I0
I3
I0
I1
I1
I0
I0
tI3
tp307
F-4.9724582940445261
s((I1
I0
I3
I1
I0
I1
I0
I1
tI3
tp308
I-100
s((I1
I0
I0
I1
I0
I1
I0
I0
tI2
tp309
F-10.778343999361361
s((I0
I1
I3
I0
I0
I1
I1
I1
tI5
tp310
I-100
s((I1
I3
I1
I1
I1
I1
I0
I1
tI3
tp311
I-100
s((I0
I1
I1
I0
I1
I1
I0
I1
tI6
tp312
F-3.0392881328509036
s((I0
I1
I2
I0
I0
I0
I3
I0
tI2
tp313
I-100
s((I0
I1
I2
I0
I0
I1
I3
I1
tI5
tp314
I50
s((I0
I1
I1
I0
I3
I1
I0
I1
tI3
tp315
I-100
s((I1
I0
I0
I3
I1
I1
I0
I2
tI7
tp316
I-100
s((I0
I0
I0
I0
I0
I1
I1
I3
tI2
tp317
I-100
s((I1
I0
I0
I1
I0
I1
I0
I1
tI4
tp318
F-11.467932634900002
s((I0
I3
I1
I1
I0
I1
I1
I0
tI5
tp319
I-100
s((I1
I0
I1
I1
I1
I1
I3
I1
tI7
tp320
I-100
s((I0
I0
I1
I1
I0
I1
I3
I0
tI4
tp321
I-100
s((I1
I0
I0
I0
I0
I1
I1
I1
tI6
tp322
F-11.071000000000002
s((I1
I1
I1
I0
I0
I3
I1
I1
tI3
tp323
I-100
s((I0
I1
I0
I0
I0
I0
I3
I0
tI0
tp324
I-100
s((I1
I0
I0
I1
I0
I0
I0
I1
tI2
tp325
F-10.9
s((I1
I1
I1
I0
I0
I0
I1
I3
tI4
tp326
I-100
s((I1
I1
I1
I0
I0
I3
I1
I0
tI7
tp327
I-100
s((I1
I0
I2
I3
I1
I0
I1
I1
tI7
tp328
I-100
s((I0
I0
I0
I0
I0
I1
I0
I2
tI0
tp329
I-1
s((I0
I3
I1
I1
I0
I0
I0
I1
tI5
tp330
I-100
s((I1
I1
I1
I0
I3
I0
I1
I1
tI5
tp331
I-100
s((I1
I0
I0
I3
I2
I1
I1
I0
tI1
tp332
I-100
s((I0
I1
I0
I0
I0
I0
I1
I2
tI2
tp333
I-1
s((I1
I1
I1
I0
I1
I1
I0
I1
tI6
tp334
F-18.753715660225851
s((I0
I0
I0
I0
I1
I1
I3
I0
tI6
tp335
F-10
s((I1
I1
I0
I1
I0
I3
I2
I1
tI5
tp336
I-1
s((I1
I0
I0
I1
I0
I1
I1
I0
tI0
tp337
F-7.7524413302867732
s((I1
I1
I1
I3
I0
I1
I2
I0
tI6
tp338
I-100
s((I3
I0
I0
I0
I0
I1
I0
I0
tI1
tp339
I-100
s((I1
I0
I1
I1
I0
I1
I1
I1
tI2
tp340
F-18.627620737045831
s((I1
I0
I1
I0
I1
I0
I0
I1
tI5
tp341
F-4.0442771537079745
s((I0
I0
I0
I0
I3
I1
I1
I0
tI4
tp342
I-100
s((I1
I0
I0
I1
I1
I1
I0
I1
tI2
tp343
F-11.178711216100002
s((I0
I0
I2
I0
I1
I1
I3
I0
tI5
tp344
F49.427905033928155
s((I1
I3
I1
I0
I0
I0
I1
I0
tI2
tp345
I-100
s((I1
I0
I0
I3
I1
I1
I1
I1
tI6
tp346
I-100
s((I1
I0
I0
I3
I1
I0
I1
I1
tI5
tp347
F-4.6381145763924252
s((I0
I0
I2
I1
I1
I0
I0
I3
tI7
tp348
I-1
s((I0
I0
I1
I0
I2
I0
I1
I1
tI2
tp349
I-1
s((I3
I0
I1
I1
I2
I1
I0
I0
tI3
tp350
I-1
s((I1
I1
I0
I0
I0
I0
I0
I1
tI1
tp351
F-2.2103535082714916
s((I1
I1
I1
I0
I1
I1
I0
I3
tI3
tp352
I-100
s((I1
I1
I1
I3
I0
I0
I1
I0
tI0
tp353
I-100
s((I1
I1
I0
I1
I0
I3
I0
I0
tI3
tp354
F-10
s((I0
I0
I1
I1
I3
I1
I1
I0
tI4
tp355
I-100
s((I1
I3
I1
I1
I1
I0
I0
I1
tI0
tp356
I-100
s((I1
I0
I0
I0
I0
I1
I1
I0
tI0
tp357
F-1.776763619205767
s((I0
I1
I0
I0
I0
I0
I1
I3
tI3
tp358
I-100
s((I0
I0
I0
I0
I1
I1
I3
I0
tI1
tp359
I-100
s((I1
I1
I1
I0
I1
I1
I0
I0
tI3
tp360
F-11.24207683651
s((I0
I0
I1
I1
I3
I0
I0
I1
tI7
tp361
F-4.0382815708133073
s((I3
I0
I2
I1
I0
I1
I1
I1
tI0
tp362
I-100
s((I0
I1
I3
I0
I0
I1
I2
I1
tI4
tp363
I-100
s((I3
I1
I0
I0
I0
I1
I0
I1
tI3
tp364
I-100
s((I1
I0
I1
I0
I1
I0
I0
I1
tI2
tp365
F-4.8760495798290986
s((I0
I0
I0
I0
I1
I0
I1
I1
tI0
tp366
F-1.9702286033510283
s((I1
I1
I2
I0
I0
I0
I3
I1
tI2
tp367
I-100
s((I1
I0
I1
I1
I3
I1
I1
I1
tI1
tp368
F-100.13663077704477
s((I1
I0
I0
I3
I1
I1
I0
I0
tI5
tp369
F-4.4890467316311327
s((I1
I1
I1
I3
I0
I1
I1
I0
tI2
tp370
I-100
s((I0
I0
I1
I1
I0
I3
I0
I1
tI3
tp371
I-100
s((I0
I3
I1
I1
I2
I0
I0
I1
tI7
tp372
I-100
s((I3
I0
I0
I0
I0
I1
I1
I0
tI2
tp373
I-100
s((I3
I1
I0
I0
I0
I0
I0
I0
tI3
tp374
F-5.0209568749074114
s((I3
I0
I1
I1
I2
I1
I0
I0
tI4
tp375
F49.493462945817043
s((I0
I3
I0
I1
I1
I0
I2
I0
tI1
tp376
I-1
s((I1
I0
I1
I1
I0
I1
I0
I0
tI7
tp377
F-2.5689153854418607
s((I3
I1
I0
I0
I2
I1
I1
I1
tI5
tp378
I-1
s((I1
I0
I0
I0
I0
I1
I1
I0
tI7
tp379
F-1.7545176262334219
s((I1
I1
I0
I3
I2
I0
I0
I1
tI5
tp380
I-1
s((I3
I1
I0
I0
I0
I0
I1
I1
tI1
tp381
F8.7150948021323966
s((I0
I2
I0
I1
I1
I0
I0
I3
tI7
tp382
I-1
s((I1
I1
I1
I1
I2
I1
I3
I1
tI4
tp383
I-100
s((I1
I1
I0
I0
I0
I1
I1
I1
tI0
tp384
F-11.639031343753079
s((I0
I0
I0
I1
I0
I1
I1
I1
tI4
tp385
F-16.999127213131715
s((I1
I2
I1
I0
I0
I0
I1
I3
tI0
tp386
I-1
s((I3
I1
I1
I0
I0
I1
I1
I1
tI5
tp387
I-100
s((I0
I3
I1
I0
I1
I0
I0
I1
tI2
tp388
F-10.025942016753971
s((I1
I0
I0
I0
I1
I3
I1
I1
tI5
tp389
F-4.296784820267975
s((I0
I1
I0
I0
I3
I1
I1
I1
tI5
tp390
I-100
s((I1
I1
I1
I2
I3
I0
I0
I1
tI1
tp391
I-1
s((I0
I0
I1
I1
I0
I3
I0
I1
tI4
tp392
F-4.7528730915902511
s((I1
I0
I0
I1
I0
I0
I3
I1
tI0
tp393
I-100
s((I3
I0
I0
I1
I1
I0
I0
I1
tI1
tp394
F-4.4131291152525698
s((I1
I0
I1
I0
I0
I2
I1
I3
tI0
tp395
I-1
s((I3
I0
I1
I1
I0
I1
I0
I0
tI4
tp396
F-4.5259537245121786
s((I1
I1
I3
I1
I0
I0
I0
I1
tI4
tp397
I-100
s((I1
I1
I1
I0
I1
I1
I0
I3
tI2
tp398
I-100
s((I2
I0
I0
I0
I1
I1
I0
I3
tI6
tp399
I-1
s((I1
I1
I1
I3
I0
I1
I1
I0
tI1
tp400
I-100
s((I0
I0
I3
I0
I1
I2
I1
I1
tI6
tp401
I-100
s((I0
I1
I0
I2
I3
I0
I1
I1
tI5
tp402
I-100
s((I1
I3
I1
I0
I1
I0
I1
I1
tI1
tp403
F-1.5103527364868752
s((I1
I1
I0
I0
I3
I1
I1
I1
tI4
tp404
I-100
s((I1
I1
I1
I2
I0
I0
I1
I3
tI7
tp405
I-100
s((I1
I0
I1
I0
I1
I3
I1
I1
tI3
tp406
I-100
s((I0
I0
I3
I1
I1
I0
I2
I0
tI1
tp407
I-1
s((I0
I0
I1
I0
I0
I3
I1
I1
tI1
tp408
I-100
s((I1
I1
I1
I0
I3
I2
I1
I1
tI5
tp409
I-100
s((I2
I1
I1
I0
I0
I1
I3
I1
tI5
tp410
I-100
s((I1
I1
I0
I1
I0
I0
I0
I1
tI1
tp411
F-1.4354659489689221
s((I1
I0
I0
I0
I1
I1
I0
I0
tI5
tp412
I-100
s((I1
I1
I0
I0
I0
I1
I1
I1
tI7
tp413
F-4.1521680611477638
s((I0
I0
I3
I1
I1
I0
I2
I1
tI5
tp414
I-100
s((I3
I0
I0
I1
I1
I0
I2
I0
tI3
tp415
I-1
s((I1
I1
I1
I0
I0
I0
I1
I1
tI6
tp416
F-3.0074615642413405
s((I1
I1
I1
I3
I1
I1
I0
I0
tI7
tp417
I-100
s((I1
I0
I0
I1
I1
I1
I3
I0
tI4
tp418
I-100
s((I3
I1
I2
I0
I0
I0
I0
I0
tI1
tp419
I-1
s((I3
I1
I1
I0
I0
I1
I1
I1
tI2
tp420
I-100
s((I1
I0
I1
I1
I1
I3
I0
I1
tI5
tp421
I-100
s((I1
I2
I0
I1
I1
I1
I0
I3
tI2
tp422
I-100
s((I0
I2
I0
I1
I3
I1
I1
I1
tI2
tp423
I-100
s((I1
I1
I1
I0
I3
I1
I1
I1
tI6
tp424
I-100
s((I1
I1
I1
I0
I3
I0
I0
I1
tI6
tp425
I-100
s((I0
I0
I0
I1
I1
I0
I0
I3
tI1
tp426
F-3.5356384782000609
s((I1
I1
I1
I0
I0
I0
I0
I0
tI4
tp427
F-10.153899999999998
s((I1
I1
I1
I0
I0
I1
I2
I3
tI5
tp428
I-100
s((I3
I0
I0
I0
I0
I1
I0
I0
tI6
tp429
I-100
s((I3
I1
I0
I0
I0
I2
I0
I0
tI3
tp430
I-1
s((I2
I0
I1
I1
I0
I1
I1
I3
tI5
tp431
I-100
s((I1
I0
I0
I0
I1
I3
I1
I1
tI7
tp432
I-100
s((I1
I1
I1
I0
I0
I0
I0
I1
tI2
tp433
F-11.726454510579638
s((I1
I2
I0
I1
I0
I1
I0
I0
tI0
tp434
I-1
s((I3
I1
I1
I0
I1
I1
I0
I1
tI0
tp435
I-100
s((I3
I1
I1
I0
I1
I0
I0
I2
tI1
tp436
I-1
s((I0
I1
I3
I0
I0
I0
I0
I0
tI2
tp437
F-4.8850162730767845
s((I0
I1
I0
I0
I0
I1
I1
I1
tI3
tp438
F-1.8267535432398225
s((I0
I1
I3
I2
I0
I1
I1
I1
tI5
tp439
I-100
s((I0
I0
I0
I1
I1
I0
I2
I0
tI1
tp440
I-100
s((I1
I1
I3
I0
I0
I0
I0
I1
tI3
tp441
I-100
s((I2
I0
I1
I0
I0
I3
I0
I1
tI3
tp442
I-100
s((I1
I0
I1
I1
I1
I1
I0
I2
tI2
tp443
I-1
s((I0
I0
I0
I1
I1
I0
I0
I1
tI0
tp444
F-2.2010292603611883
s((I0
I0
I0
I1
I3
I1
I1
I1
tI7
tp445
F-2.6377493477643275
s((I1
I2
I0
I1
I1
I1
I0
I3
tI5
tp446
I-1
s((I1
I2
I1
I1
I1
I1
I3
I0
tI3
tp447
I-100
s((I0
I1
I0
I0
I0
I1
I1
I1
tI1
tp448
F-1.9061961641667553
s((I1
I1
I1
I0
I0
I0
I0
I0
tI3
tp449
F-10.990000000000002
s((I1
I0
I1
I1
I1
I1
I0
I3
tI1
tp450
I-100
s((I0
I1
I1
I3
I0
I0
I1
I0
tI6
tp451
I-100
s((I1
I0
I1
I0
I0
I0
I1
I3
tI2
tp452
I-100
s((I3
I1
I0
I0
I0
I2
I0
I0
tI4
tp453
I-1
s((I1
I0
I0
I3
I0
I1
I1
I1
tI7
tp454
I-100
s((I1
I0
I0
I3
I0
I1
I1
I0
tI0
tp455
I-100
s((I1
I0
I0
I3
I2
I1
I1
I0
tI7
tp456
I-100
s((I1
I1
I1
I0
I3
I2
I0
I1
tI5
tp457
I-100
s((I1
I0
I0
I0
I0
I1
I1
I0
tI4
tp458
F-1.6737098544390601
s((I1
I0
I1
I3
I1
I0
I0
I1
tI1
tp459
F-100.69108202146275
s((I0
I1
I1
I0
I1
I0
I3
I0
tI3
tp460
I-100
s((I3
I1
I1
I0
I0
I1
I0
I1
tI3
tp461
I-100
s((I1
I1
I1
I1
I3
I1
I0
I1
tI7
tp462
F-101.26294363714989
s((I1
I0
I0
I1
I0
I1
I1
I3
tI6
tp463
F-4.9855147418845949
s((I0
I0
I3
I0
I1
I0
I1
I1
tI0
tp464
F-10
s((I0
I0
I1
I1
I0
I0
I0
I1
tI0
tp465
F-2.122836136983818
s((I1
I2
I1
I1
I0
I1
I1
I1
tI4
tp466
I-1
s((I0
I0
I1
I1
I0
I1
I0
I0
tI6
tp467
I-100
s((I1
I0
I0
I1
I0
I1
I3
I1
tI0
tp468
I-100
s((I2
I1
I0
I0
I0
I0
I3
I0
tI1
tp469
I-100
s((I0
I0
I0
I0
I0
I1
I1
I0
tI3
tp470
I-100
s((I1
I0
I3
I0
I1
I1
I0
I2
tI5
tp471
I-100
s((I1
I1
I1
I0
I2
I3
I1
I1
tI5
tp472
I-100
s((I1
I1
I1
I0
I0
I0
I1
I0
tI7
tp473
F-4.8426611994752831
s((I1
I0
I1
I1
I1
I1
I0
I0
tI3
tp474
F-10.9
s((I0
I1
I3
I0
I0
I0
I0
I2
tI4
tp475
I-100
s((I0
I3
I1
I0
I0
I0
I0
I1
tI1
tp476
F-4.5564862639643007
s((I1
I0
I3
I1
I0
I1
I1
I0
tI0
tp477
I-100
s((I1
I0
I1
I3
I1
I0
I1
I1
tI7
tp478
F-100.21486954075121
s((I0
I1
I1
I0
I0
I3
I1
I0
tI1
tp479
I-100
s((I1
I0
I0
I1
I0
I1
I3
I0
tI2
tp480
I-100
s((I1
I1
I1
I0
I0
I1
I1
I0
tI6
tp481
F-3.6167225230373861
s((I1
I2
I1
I1
I1
I1
I0
I0
tI5
tp482
I-1
s((I1
I0
I1
I1
I1
I1
I0
I1
tI3
tp483
F-3.2049767577585433
s((I1
I0
I3
I0
I0
I1
I1
I1
tI1
tp484
I-100
s((I0
I0
I1
I1
I1
I1
I3
I1
tI3
tp485
I-100
s((I1
I0
I1
I1
I3
I1
I0
I1
tI6
tp486
I-100
s((I1
I0
I1
I3
I0
I0
I1
I0
tI5
tp487
I-100
s((I0
I1
I0
I0
I0
I1
I0
I1
tI2
tp488
F-11.0791
s((I0
I3
I0
I0
I0
I1
I0
I0
tI6
tp489
I-100
s((I1
I1
I3
I1
I0
I0
I0
I0
tI6
tp490
I-100
s((I1
I3
I0
I1
I0
I1
I1
I0
tI2
tp491
I-100
s((I0
I1
I0
I0
I2
I0
I1
I1
tI1
tp492
I-1
s((I1
I0
I0
I1
I0
I1
I2
I3
tI2
tp493
I-100
s((I1
I0
I2
I1
I0
I1
I3
I0
tI0
tp494
I-100
s((I0
I0
I1
I0
I1
I0
I0
I1
tI6
tp495
F-11.1081871
s((I0
I0
I0
I0
I1
I1
I0
I0
tI7
tp496
F-11.839389079115314
s((I0
I1
I0
I0
I0
I3
I1
I1
tI3
tp497
I-100
s((I0
I0
I1
I1
I0
I1
I1
I0
tI0
tp498
F-2.7121108420170161
s((I0
I0
I1
I0
I1
I1
I1
I1
tI2
tp499
F-18.699560488685151
s((I3
I0
I0
I0
I2
I1
I0
I0
tI4
tp500
I50
s((I0
I0
I1
I1
I0
I1
I1
I2
tI3
tp501
F49.632252121056531
s((I1
I0
I1
I2
I0
I0
I1
I3
tI7
tp502
I-100
s((I1
I2
I0
I1
I1
I1
I0
I1
tI0
tp503
I-1
s((I3
I1
I1
I0
I0
I0
I1
I0
tI4
tp504
F-3.3803366193861466
s((I0
I1
I1
I0
I0
I1
I3
I1
tI4
tp505
I-100
s((I3
I0
I1
I1
I1
I1
I0
I1
tI1
tp506
I-100
s((I0
I3
I0
I1
I0
I1
I1
I1
tI4
tp507
F-100.6239404223394
s((I1
I0
I0
I1
I0
I1
I0
I3
tI4
tp508
I-100
s((I0
I0
I3
I1
I0
I1
I1
I1
tI2
tp509
I-100
s((I1
I0
I1
I1
I1
I1
I0
I3
tI0
tp510
I-100
s((I1
I1
I0
I1
I0
I3
I0
I1
tI6
tp511
I-100
s((I0
I0
I0
I1
I1
I0
I0
I0
tI5
tp512
F-2.3304370301002368
s((I1
I0
I3
I1
I0
I0
I0
I1
tI0
tp513
I-100
s((I1
I2
I1
I1
I0
I1
I3
I1
tI5
tp514
I-100
s((I0
I0
I1
I0
I0
I0
I1
I1
tI2
tp515
F-2.6458876232588078
s((I2
I1
I0
I0
I0
I1
I0
I1
tI1
tp516
I-1
s((I1
I1
I0
I0
I0
I0
I3
I1
tI2
tp517
I-100
s((I1
I0
I1
I3
I0
I0
I1
I0
tI2
tp518
I-100
s((I1
I3
I1
I1
I1
I1
I2
I0
tI5
tp519
I-100
s((I1
I0
I0
I3
I0
I1
I1
I2
tI2
tp520
I-100
s((I1
I1
I0
I1
I3
I0
I0
I1
tI4
tp521
I-100
s((I1
I3
I0
I1
I0
I1
I1
I0
tI5
tp522
I-100
s((I1
I0
I0
I0
I0
I1
I1
I3
tI1
tp523
I-100
s((I1
I0
I1
I1
I1
I1
I3
I0
tI2
tp524
I-100
s((I0
I3
I1
I0
I0
I0
I1
I1
tI5
tp525
I-100
s((I0
I1
I1
I0
I1
I0
I0
I3
tI2
tp526
I-100
s((I0
I0
I0
I0
I1
I1
I0
I0
tI0
tp527
F-2.2747070531983611
s((I1
I1
I3
I0
I0
I1
I1
I1
tI4
tp528
I-100
s((I0
I0
I0
I0
I1
I1
I0
I3
tI5
tp529
F-4.5846673585102593
s((I1
I1
I1
I1
I0
I1
I3
I1
tI2
tp530
F-100.18019683344606
s((I3
I0
I0
I0
I1
I1
I0
I0
tI1
tp531
I-100
s((I2
I1
I0
I0
I0
I0
I1
I3
tI4
tp532
I-100
s((I0
I2
I0
I0
I1
I3
I1
I1
tI4
tp533
I-100
s((I0
I1
I0
I0
I0
I0
I1
I0
tI5
tp534
F-10.990000000000002
s((I0
I0
I3
I0
I0
I1
I0
I0
tI1
tp535
I-100
s((I0
I0
I0
I1
I0
I0
I1
I0
tI5
tp536
I-1
s((I1
I1
I1
I3
I0
I1
I1
I1
tI7
tp537
I-100
s((I0
I1
I1
I0
I1
I3
I0
I0
tI5
tp538
I-100
s((I0
I3
I0
I1
I0
I1
I1
I1
tI3
tp539
F-100.83083738260655
s((I0
I1
I0
I0
I3
I0
I1
I0
tI3
tp540
I-100
s((I0
I3
I1
I0
I1
I1
I1
I1
tI1
tp541
F-101.03134192493741
s((I2
I0
I3
I1
I0
I1
I1
I1
tI0
tp542
I-100
s((I0
I3
I1
I0
I1
I0
I0
I1
tI5
tp543
I-100
s((I0
I0
I1
I1
I0
I1
I0
I3
tI6
tp544
F-5.0476571518779503
s((I1
I1
I1
I3
I2
I0
I1
I0
tI6
tp545
I-100
s((I0
I0
I1
I1
I1
I1
I0
I1
tI5
tp546
F-4.5547181748124386
s((I1
I3
I0
I0
I1
I0
I1
I1
tI2
tp547
I-100
s((I1
I1
I1
I3
I0
I1
I0
I0
tI1
tp548
I-100
s((I1
I0
I0
I1
I3
I1
I1
I0
tI0
tp549
I-100
s((I1
I0
I1
I1
I0
I1
I3
I1
tI3
tp550
I-100
s((I0
I0
I1
I0
I0
I0
I1
I1
tI5
tp551
F-2.5825410130215314
s((I3
I1
I0
I0
I2
I0
I0
I0
tI3
tp552
I-1
s((I1
I1
I0
I1
I3
I0
I0
I1
tI3
tp553
I-100
s((I1
I1
I1
I1
I0
I0
I0
I3
tI2
tp554
I-100
s((I1
I1
I1
I3
I2
I0
I1
I1
tI0
tp555
I-100
s((I1
I1
I0
I2
I0
I1
I1
I1
tI6
tp556
I-1
s((I3
I1
I0
I0
I0
I0
I0
I2
tI4
tp557
I-1
s((I1
I0
I1
I0
I1
I0
I1
I1
tI7
tp558
F-11.019336220811562
s((I1
I0
I0
I1
I3
I0
I0
I1
tI2
tp559
I-100
s((I0
I3
I1
I1
I1
I1
I0
I1
tI7
tp560
I-100
s((I1
I1
I0
I1
I0
I2
I0
I1
tI0
tp561
I-1
s((I1
I1
I1
I1
I0
I1
I3
I1
tI5
tp562
F-100.16520817413812
s((I0
I0
I0
I1
I1
I3
I0
I1
tI4
tp563
I-100
s((I0
I0
I0
I2
I0
I1
I0
I0
tI3
tp564
I-1
s((I1
I2
I0
I0
I1
I0
I1
I1
tI7
tp565
I-1
s((I3
I1
I1
I0
I1
I1
I2
I1
tI2
tp566
F49.699331790340082
s((I3
I0
I0
I0
I0
I1
I0
I2
tI0
tp567
I-100
s((I1
I1
I3
I2
I0
I1
I1
I1
tI6
tp568
I-100
s((I1
I0
I1
I1
I1
I1
I2
I1
tI5
tp569
I-1
s((I1
I1
I1
I0
I0
I2
I1
I3
tI4
tp570
I-100
s((I1
I0
I3
I0
I1
I0
I1
I1
tI6
tp571
I-100
s((I0
I1
I1
I0
I1
I3
I0
I0
tI2
tp572
I-100
s((I1
I3
I1
I1
I1
I1
I0
I0
tI2
tp573
F-10
s((I1
I1
I1
I0
I0
I1
I0
I0
tI4
tp574
F-3.1747161540649689
s((I3
I0
I0
I0
I1
I1
I0
I0
tI0
tp575
I-100
s((I0
I0
I3
I1
I1
I0
I0
I0
tI7
tp576
F-3.5636626149990351
s((I0
I3
I1
I1
I0
I1
I0
I0
tI1
tp577
I-100
s((I0
I3
I1
I0
I1
I1
I1
I1
tI6
tp578
F-101.07257782185255
s((I0
I0
I1
I0
I3
I2
I1
I1
tI0
tp579
I-1
s((I3
I1
I1
I0
I1
I0
I0
I0
tI2
tp580
F-4.7055866558889736
s((I2
I0
I1
I1
I1
I1
I0
I1
tI0
tp581
I-1
s((I1
I3
I1
I1
I1
I1
I0
I2
tI6
tp582
I-100
s((I1
I0
I0
I1
I3
I1
I0
I1
tI1
tp583
F-100.34509961022917
s((I3
I0
I2
I0
I1
I1
I0
I0
tI6
tp584
I-100
s((I1
I0
I0
I1
I3
I1
I1
I0
tI7
tp585
I-100
s((I1
I1
I0
I1
I0
I3
I0
I2
tI3
tp586
I50
s((I1
I1
I1
I0
I0
I1
I1
I3
tI7
tp587
I-100
s((I0
I2
I0
I0
I0
I1
I1
I3
tI1
tp588
I-100
s((I0
I0
I3
I0
I0
I1
I0
I0
tI2
tp589
F-5.2826847436455004
s((I3
I0
I1
I1
I0
I1
I1
I0
tI7
tp590
I-100
s((I3
I0
I0
I1
I2
I1
I1
I1
tI2
tp591
I-100
s((I0
I1
I1
I0
I0
I0
I1
I0
tI4
tp592
F-11.474640328533978
s((I1
I0
I3
I2
I1
I1
I1
I1
tI2
tp593
I-100
s((I0
I0
I1
I1
I3
I1
I0
I0
tI1
tp594
I-100
s((I1
I3
I1
I1
I2
I1
I1
I1
tI5
tp595
I-100
s((I0
I0
I0
I2
I1
I1
I0
I3
tI0
tp596
I50
s((I1
I0
I3
I1
I0
I1
I2
I0
tI0
tp597
I-100
s((I0
I1
I1
I0
I0
I1
I0
I1
tI7
tp598
F-10.9
s((I1
I1
I0
I0
I3
I0
I0
I1
tI3
tp599
I-100
s((I0
I3
I0
I1
I1
I0
I0
I0
tI3
tp600
F-4.290271241365561
s((I0
I1
I1
I0
I1
I0
I3
I0
tI1
tp601
I-100
s((I1
I2
I0
I0
I1
I0
I1
I1
tI0
tp602
I-1
s((I1
I0
I0
I0
I1
I2
I1
I1
tI2
tp603
I-1
s((I3
I0
I1
I1
I0
I0
I0
I1
tI3
tp604
I-100
s((I1
I0
I1
I1
I2
I1
I1
I1
tI2
tp605
I-1
s((I0
I1
I3
I2
I0
I0
I1
I0
tI2
tp606
I-100
s((I3
I1
I0
I0
I0
I0
I2
I0
tI1
tp607
I-1
s((I3
I1
I0
I0
I0
I0
I0
I0
tI0
tp608
I-100
s((I1
I0
I0
I1
I1
I1
I0
I3
tI6
tp609
F-4.4171149476078417
s((I0
I0
I1
I0
I2
I3
I1
I1
tI6
tp610
I-1
s((I0
I3
I0
I1
I1
I0
I0
I1
tI3
tp611
I-100
s((I3
I1
I0
I0
I0
I0
I0
I0
tI7
tp612
I-100
s((I3
I1
I1
I0
I2
I1
I1
I1
tI1
tp613
I-100
s((I0
I0
I1
I0
I0
I0
I0
I1
tI1
tp614
F-2.1565995540129803
s((I1
I1
I1
I2
I0
I1
I1
I0
tI3
tp615
I-1
s((I1
I1
I1
I0
I0
I1
I1
I1
tI4
tp616
F-2.9454246842999869
s((I1
I3
I1
I0
I0
I0
I1
I2
tI3
tp617
F49.688066124000564
s((I1
I1
I1
I0
I0
I3
I1
I2
tI5
tp618
I-100
s((I3
I0
I2
I0
I1
I1
I0
I0
tI1
tp619
I-100
s((I1
I1
I1
I3
I0
I1
I1
I2
tI5
tp620
I-100
s((I1
I1
I0
I1
I0
I0
I2
I1
tI5
tp621
I-1
s((I3
I1
I1
I0
I0
I1
I0
I1
tI5
tp622
I-100
s((I0
I1
I0
I0
I3
I0
I1
I1
tI2
tp623
I-100
s((I0
I0
I3
I1
I1
I0
I0
I1
tI1
tp624
F-5.1442382768892907
s((I1
I1
I0
I3
I0
I0
I0
I1
tI0
tp625
I-100
s((I1
I1
I1
I0
I0
I1
I1
I2
tI2
tp626
I-1
s((I1
I2
I0
I0
I1
I1
I0
I3
tI0
tp627
I-1
s((I0
I0
I1
I1
I3
I1
I0
I0
tI6
tp628
I-100
s((I3
I1
I0
I0
I0
I1
I1
I1
tI7
tp629
I-100
s((I2
I0
I0
I1
I3
I1
I1
I1
tI4
tp630
I-100
s((I0
I0
I0
I0
I0
I1
I1
I3
tI5
tp631
F-10
s((I0
I0
I1
I0
I3
I0
I0
I1
tI2
tp632
I-100
s((I0
I2
I1
I0
I3
I0
I0
I1
tI4
tp633
I-100
s((I0
I1
I0
I0
I0
I3
I1
I0
tI6
tp634
I-100
s((I3
I0
I1
I0
I1
I0
I0
I1
tI0
tp635
I-100
s((I1
I2
I0
I1
I0
I1
I0
I0
tI2
tp636
I-1
s((I3
I0
I1
I1
I0
I1
I2
I0
tI6
tp637
I-100
s((I1
I1
I1
I3
I1
I1
I0
I2
tI3
tp638
F49.684417114930547
s((I2
I1
I3
I0
I0
I0
I1
I0
tI1
tp639
I-1
s((I0
I1
I3
I2
I0
I1
I0
I1
tI1
tp640
I-100
s((I0
I1
I3
I0
I0
I0
I1
I0
tI5
tp641
I-100
s((I1
I1
I1
I1
I0
I1
I0
I1
tI0
tp642
F-19.175901137710401
s((I0
I0
I1
I0
I0
I0
I0
I1
tI6
tp643
F-11.162550567601
s((I1
I1
I1
I0
I0
I1
I0
I3
tI6
tp644
I-100
s((I1
I1
I1
I0
I0
I0
I1
I3
tI7
tp645
I-100
s((I2
I1
I0
I0
I0
I3
I1
I1
tI3
tp646
I-100
s((I1
I0
I1
I1
I0
I1
I0
I1
tI1
tp647
F-10.602889237201461
s((I1
I1
I1
I1
I3
I0
I0
I0
tI1
tp648
F-4.2316622905527979
s((I1
I0
I0
I3
I1
I0
I1
I1
tI4
tp649
I-100
s((I1
I3
I1
I0
I1
I0
I1
I1
tI3
tp650
I-100
s((I0
I0
I1
I1
I2
I3
I0
I1
tI6
tp651
I-1
s((I0
I1
I3
I0
I0
I1
I0
I1
tI5
tp652
I-100
s((I0
I0
I3
I1
I1
I0
I0
I1
tI6
tp653
I-100
s((I1
I0
I3
I1
I1
I1
I2
I1
tI1
tp654
I-100
s((I1
I1
I1
I0
I0
I0
I3
I1
tI1
tp655
F-100.14133647379052
s((I1
I1
I1
I3
I2
I1
I1
I0
tI3
tp656
I-1
s((I1
I1
I0
I3
I0
I1
I1
I1
tI5
tp657
F-4.9651333712143506
s((I1
I1
I0
I0
I3
I1
I1
I1
tI6
tp658
I-100
s((I0
I1
I1
I0
I0
I0
I1
I3
tI1
tp659
F-4.093250101930221
s((I1
I0
I1
I1
I1
I1
I3
I1
tI2
tp660
I-100
s((I0
I0
I1
I0
I3
I0
I0
I1
tI5
tp661
I-100
s((I1
I1
I1
I0
I0
I0
I0
I3
tI5
tp662
I-100
s((I0
I2
I0
I0
I1
I1
I0
I0
tI7
tp663
I-1
s((I1
I1
I1
I0
I1
I1
I3
I1
tI7
tp664
F-101.87396237508042
s((I0
I0
I0
I1
I1
I3
I0
I0
tI2
tp665
I-100
s((I0
I0
I0
I0
I3
I1
I1
I2
tI5
tp666
I-100
s((I3
I0
I1
I0
I1
I0
I2
I1
tI0
tp667
I-100
s((I1
I1
I1
I3
I0
I1
I0
I0
tI0
tp668
I-100
s((I0
I1
I2
I0
I0
I1
I3
I1
tI3
tp669
I-100
s((I1
I1
I1
I0
I0
I1
I0
I3
tI1
tp670
I-100
s((I2
I1
I0
I0
I3
I0
I1
I0
tI0
tp671
I-1
s((I0
I0
I1
I0
I3
I0
I1
I1
tI0
tp672
F-4.653954832595411
s((I1
I1
I1
I3
I0
I1
I0
I2
tI5
tp673
I-100
s((I1
I0
I0
I1
I0
I3
I0
I1
tI2
tp674
I-100
s((I0
I0
I1
I3
I0
I0
I1
I1
tI2
tp675
I-100
s((I2
I1
I3
I0
I0
I1
I0
I1
tI6
tp676
I-100
s((I0
I2
I0
I1
I1
I3
I0
I0
tI5
tp677
I-1
s((I3
I1
I1
I0
I2
I0
I1
I0
tI6
tp678
I-100
s((I2
I3
I1
I0
I1
I1
I1
I1
tI0
tp679
I-100
s((I1
I3
I1
I1
I0
I1
I1
I1
tI2
tp680
F-100.94270002849831
s((I3
I0
I0
I1
I1
I0
I0
I0
tI4
tp681
I-100
s((I0
I1
I0
I0
I3
I2
I1
I1
tI2
tp682
I-100
s((I0
I1
I0
I0
I0
I1
I3
I1
tI1
tp683
I-100
s((I1
I3
I1
I0
I2
I0
I1
I0
tI3
tp684
I-1
s((I1
I0
I3
I0
I0
I1
I1
I0
tI7
tp685
I-100
s((I0
I2
I0
I1
I1
I3
I0
I1
tI1
tp686
I-100
s((I1
I1
I3
I1
I0
I2
I0
I1
tI3
tp687
I-100
s((I1
I3
I1
I1
I1
I0
I0
I1
tI3
tp688
I-100
s((I3
I1
I0
I0
I2
I0
I1
I0
tI4
tp689
F49.606968018890221
s((I0
I0
I0
I1
I1
I0
I2
I0
tI7
tp690
I-100
s((I0
I0
I1
I0
I0
I2
I0
I1
tI3
tp691
I-1
s((I1
I1
I1
I0
I2
I0
I1
I1
tI6
tp692
I-1
s((I1
I0
I3
I1
I1
I1
I0
I1
tI6
tp693
I-100
s((I0
I0
I1
I1
I2
I1
I1
I0
tI4
tp694
F34.879518970999996
s((I0
I0
I1
I1
I0
I1
I0
I2
tI4
tp695
I-1
s((I1
I0
I1
I0
I0
I0
I1
I0
tI1
tp696
F-1.6325810850631584
s((I0
I1
I0
I0
I3
I2
I1
I0
tI3
tp697
I-100
s((I1
I1
I1
I3
I0
I0
I0
I0
tI3
tp698
F-4.1939173867008748
s((I1
I0
I0
I2
I1
I1
I0
I3
tI2
tp699
I-100
s((I3
I1
I2
I0
I0
I1
I1
I1
tI0
tp700
I-100
s((I1
I0
I3
I1
I1
I1
I0
I2
tI4
tp701
I-100
s((I0
I1
I0
I3
I0
I1
I1
I1
tI0
tp702
I-100
s((I1
I1
I1
I0
I1
I1
I3
I1
tI0
tp703
F-100.9678198919846
s((I1
I0
I3
I0
I1
I1
I1
I1
tI5
tp704
I-100
s((I1
I3
I1
I1
I0
I1
I1
I1
tI5
tp705
F-100.95631911776205
s((I1
I0
I2
I0
I1
I1
I1
I1
tI7
tp706
I-1
s((I1
I1
I1
I1
I0
I0
I0
I0
tI7
tp707
F-2.1138131932883342
s((I1
I1
I1
I1
I0
I0
I0
I2
tI0
tp708
I-1
s((I0
I1
I0
I3
I0
I0
I1
I0
tI2
tp709
I-100
s((I0
I1
I1
I0
I1
I0
I0
I0
tI0
tp710
F-2.0988948190625782
s((I0
I0
I1
I0
I3
I2
I0
I1
tI4
tp711
I-100
s((I1
I0
I1
I3
I1
I0
I1
I1
tI1
tp712
F-100.16090934791944
s((I0
I1
I0
I0
I0
I0
I1
I1
tI4
tp713
F-11.347848293826415
s((I1
I0
I0
I0
I1
I1
I1
I1
tI5
tp714
F-1.9177867943823077
s((I3
I0
I1
I1
I1
I1
I2
I1
tI5
tp715
I-100
s((I0
I1
I0
I0
I0
I0
I1
I3
tI1
tp716
F-4.4276141659687251
s((I2
I0
I0
I1
I1
I0
I0
I3
tI7
tp717
I50
s((I1
I1
I1
I1
I0
I3
I0
I0
tI2
tp718
I-100
s((I0
I0
I0
I2
I0
I1
I1
I3
tI4
tp719
I-100
s((I0
I0
I1
I0
I0
I2
I0
I1
tI4
tp720
I-100
s((I0
I0
I1
I1
I3
I1
I1
I0
tI0
tp721
I-100
s((I1
I0
I0
I0
I1
I0
I1
I1
tI7
tp722
F-1.6463571726466764
s((I1
I3
I1
I1
I0
I1
I0
I1
tI7
tp723
I-100
s((I1
I0
I0
I1
I0
I1
I0
I0
tI4
tp724
F-10.990000000000002
s((I3
I0
I1
I0
I0
I0
I1
I1
tI3
tp725
I-100
s((I1
I1
I0
I1
I2
I3
I0
I1
tI3
tp726
I-100
s((I0
I1
I0
I0
I0
I0
I0
I0
tI6
tp727
F-1.7359738863825087
s((I1
I0
I0
I0
I1
I1
I0
I0
tI7
tp728
F-1.4410895509000001
s((I2
I1
I0
I0
I3
I0
I1
I1
tI3
tp729
I-100
s((I0
I1
I1
I2
I0
I1
I0
I1
tI0
tp730
I50
s((I3
I1
I2
I0
I0
I1
I1
I1
tI7
tp731
I-100
s((I1
I0
I1
I1
I0
I1
I3
I0
tI6
tp732
F-4.7052124287588271
s((I1
I0
I0
I1
I0
I1
I0
I1
tI2
tp733
F-3.9107887141475359
s((I1
I1
I1
I3
I0
I0
I1
I1
tI3
tp734
I-100
s((I2
I0
I1
I1
I1
I1
I3
I1
tI5
tp735
I-100
s((I2
I1
I0
I0
I0
I1
I3
I1
tI7
tp736
I50
s((I0
I0
I1
I1
I0
I1
I3
I0
tI2
tp737
I-100
s((I3
I0
I0
I1
I0
I1
I1
I1
tI1
tp738
I-100
s((I1
I1
I1
I0
I0
I3
I1
I1
tI5
tp739
I-100
s((I0
I1
I1
I2
I3
I1
I1
I1
tI6
tp740
I-100
s((I1
I0
I1
I1
I0
I1
I0
I3
tI0
tp741
I-100
s((I0
I0
I1
I0
I3
I2
I0
I1
tI3
tp742
I-100
s((I0
I0
I0
I0
I0
I1
I0
I0
tI5
tp743
F-12.21672537345848
s((I3
I0
I1
I1
I1
I1
I2
I1
tI2
tp744
F49.534812270910614
s((I0
I0
I1
I1
I0
I1
I1
I3
tI7
tp745
F-4.8380759280646526
s((I0
I1
I0
I0
I3
I1
I1
I1
tI1
tp746
I-100
s((I1
I1
I1
I1
I0
I3
I0
I0
tI5
tp747
I-100
s((I1
I0
I0
I1
I1
I1
I3
I1
tI1
tp748
I-100
s((I0
I1
I1
I0
I1
I0
I0
I0
tI1
tp749
F-12.232397384171495
s((I0
I0
I1
I1
I0
I1
I2
I0
tI7
tp750
I-1
s((I1
I1
I0
I1
I0
I0
I0
I0
tI5
tp751
I-100
s((I1
I1
I2
I0
I0
I0
I0
I1
tI4
tp752
I-1
s((I1
I2
I0
I0
I1
I3
I1
I1
tI2
tp753
I-100
s((I1
I0
I3
I0
I1
I1
I0
I0
tI2
tp754
F-5.0052881871708301
s((I1
I0
I3
I1
I0
I1
I0
I1
tI0
tp755
I-100
s((I1
I0
I0
I1
I0
I1
I0
I0
tI3
tp756
F-11.232190000000001
s((I0
I1
I3
I0
I0
I1
I1
I1
tI6
tp757
I-100
s((I1
I0
I1
I1
I1
I3
I0
I1
tI0
tp758
I-100
s((I0
I1
I1
I0
I1
I1
I0
I1
tI7
tp759
F-11.151999999999999
s((I0
I1
I2
I0
I0
I0
I3
I0
tI5
tp760
I50
s((I0
I1
I1
I0
I3
I1
I0
I1
tI0
tp761
I-1
s((I3
I0
I0
I0
I0
I1
I0
I0
tI2
tp762
F-10
s((I1
I0
I3
I1
I0
I1
I0
I0
tI2
tp763
F-4.6147438327083599
s((I1
I0
I1
I1
I0
I1
I1
I1
tI7
tp764
F-18.53126437022344
s((I1
I3
I1
I0
I1
I0
I0
I1
tI0
tp765
I-100
s((I1
I1
I1
I3
I0
I0
I0
I1
tI4
tp766
F-4.8740925876425498
s((I0
I1
I0
I0
I0
I0
I1
I3
tI7
tp767
F-4.6682670305316423
s((I1
I0
I1
I1
I1
I1
I3
I1
tI0
tp768
I-100
s((I1
I0
I2
I1
I0
I1
I0
I3
tI0
tp769
I-100
s((I1
I0
I0
I0
I0
I1
I1
I1
tI5
tp770
F-11.085004899999999
s((I0
I0
I1
I1
I1
I1
I3
I1
tI6
tp771
F-10
s((I0
I1
I0
I0
I0
I0
I3
I0
tI7
tp772
F-4.6587996759078134
s((I1
I0
I0
I1
I0
I0
I0
I1
tI3
tp773
F-1.7379653168016469
s((I1
I1
I1
I0
I0
I3
I1
I0
tI4
tp774
F-2.413557738382297
s((I0
I3
I1
I1
I0
I1
I1
I0
tI1
tp775
I-100
s((I0
I3
I1
I1
I0
I0
I0
I1
tI4
tp776
I-100
s((I1
I1
I1
I3
I0
I0
I1
I0
tI6
tp777
I-100
s((I1
I1
I1
I2
I3
I0
I0
I1
tI7
tp778
I-100
s((I1
I1
I1
I0
I3
I0
I1
I1
tI4
tp779
I-100
s((I0
I0
I1
I1
I3
I1
I1
I0
tI2
tp780
I-100
s((I0
I1
I0
I0
I0
I0
I1
I2
tI1
tp781
I-1
s((I1
I1
I1
I0
I1
I1
I0
I1
tI1
tp782
F-25.856704439816639
s((I0
I0
I0
I0
I1
I1
I3
I0
tI7
tp783
F-4.8797627455964054
s((I1
I0
I0
I1
I0
I1
I1
I0
tI7
tp784
F-5.0870041036292806
s((I3
I1
I0
I0
I0
I1
I0
I1
tI5
tp785
F-4.3950329693495185
s((I3
I0
I0
I0
I0
I1
I0
I0
tI0
tp786
I-100
s((I0
I0
I2
I0
I1
I1
I0
I3
tI6
tp787
I-1
s((I1
I0
I1
I0
I1
I0
I0
I1
tI4
tp788
F-10.911812651876073
s((I0
I0
I0
I0
I3
I1
I1
I0
tI5
tp789
I-100
s((I1
I0
I0
I1
I1
I1
I0
I1
tI3
tp790
F-3.8900974934388035
s((I1
I3
I1
I0
I0
I0
I1
I0
tI5
tp791
I-100
s((I1
I0
I0
I3
I1
I1
I0
I0
tI3
tp792
F-4.4830073369922356
s((I1
I0
I0
I1
I3
I0
I2
I1
tI3
tp793
I-100
s((I1
I0
I0
I3
I1
I1
I1
I1
tI5
tp794
F-5.0933835970078949
s((I0
I3
I1
I1
I0
I1
I0
I2
tI4
tp795
I-100
s((I2
I0
I0
I1
I3
I1
I1
I1
tI3
tp796
I-100
s((I1
I0
I1
I1
I1
I1
I3
I0
tI0
tp797
I-100
s((I3
I0
I1
I1
I2
I1
I0
I0
tI2
tp798
I-1
s((I1
I1
I0
I0
I0
I0
I0
I1
tI2
tp799
F-12.077376224603459
s((I3
I0
I1
I0
I1
I1
I1
I1
tI2
tp800
F-100.72949974451869
s((I1
I1
I1
I3
I0
I0
I1
I0
tI1
tp801
I-100
s((I0
I3
I1
I0
I1
I1
I1
I1
tI7
tp802
F-101.25351189769356
s((I2
I0
I1
I1
I3
I1
I1
I0
tI2
tp803
I-100
s((I1
I1
I0
I1
I0
I3
I0
I0
tI2
tp804
I-100
s((I0
I0
I1
I1
I3
I1
I1
I0
tI5
tp805
I-100
s((I1
I0
I0
I0
I0
I1
I1
I0
tI1
tp806
F-1.9744405183287776
s((I1
I1
I1
I3
I1
I1
I0
I1
tI7
tp807
F-100.85371513139164
s((I0
I3
I1
I0
I1
I0
I2
I1
tI0
tp808
I-100
s((I1
I1
I1
I0
I1
I1
I0
I0
tI0
tp809
F-11.781559122808833
s((I0
I0
I1
I1
I3
I0
I0
I1
tI6
tp810
I-100
s((I3
I0
I2
I1
I0
I1
I1
I1
tI1
tp811
I-100
s((I3
I1
I0
I0
I0
I1
I0
I1
tI2
tp812
F-3.9392500279449303
s((I0
I2
I0
I1
I1
I0
I0
I3
tI1
tp813
I-1
s((I0
I0
I0
I0
I1
I0
I1
I1
tI1
tp814
F-11.151815125660564
s((I3
I1
I1
I0
I1
I0
I0
I0
tI3
tp815
F-4.7327890368903622
s((I1
I2
I1
I0
I1
I3
I1
I1
tI3
tp816
I-100
s((I1
I3
I1
I1
I1
I1
I2
I1
tI0
tp817
I-100
s((I1
I0
I1
I1
I3
I1
I1
I1
tI2
tp818
F-100.14271608456581
s((I1
I0
I0
I3
I1
I1
I0
I0
tI4
tp819
I-100
s((I1
I3
I1
I1
I1
I1
I0
I2
tI7
tp820
I-100
s((I1
I0
I0
I0
I1
I3
I1
I1
tI4
tp821
I-100
s((I1
I1
I1
I3
I0
I1
I1
I0
tI5
tp822
I-100
s((I0
I0
I1
I1
I0
I3
I0
I1
tI2
tp823
I-100
s((I3
I0
I0
I0
I0
I1
I1
I0
tI3
tp824
F-2.1031434781347511
s((I3
I1
I0
I0
I0
I0
I0
I0
tI2
tp825
F-4.9148252869528442
s((I3
I0
I0
I1
I1
I0
I0
I1
tI7
tp826
I-100
s((I0
I3
I1
I0
I0
I2
I0
I1
tI0
tp827
I-100
s((I0
I3
I1
I2
I1
I0
I0
I1
tI2
tp828
I-1
s((I1
I1
I3
I1
I0
I0
I0
I1
tI7
tp829
I-100
s((I3
I1
I2
I0
I0
I1
I0
I1
tI7
tp830
I-100
s((I1
I0
I1
I1
I0
I1
I0
I0
tI6
tp831
F-11.0791
s((I1
I0
I0
I2
I1
I3
I1
I1
tI0
tp832
I-100
s((I0
I1
I1
I0
I0
I1
I1
I1
tI3
tp833
F-2.5092778100007513
s((I1
I0
I0
I0
I3
I1
I1
I0
tI1
tp834
I-100
s((I3
I0
I0
I1
I1
I0
I0
I2
tI7
tp835
I-100
s((I1
I1
I0
I3
I2
I0
I0
I1
tI4
tp836
I50
s((I0
I0
I1
I0
I0
I3
I1
I1
tI7
tp837
F-4.4329372920285497
s((I0
I3
I0
I1
I1
I0
I0
I2
tI0
tp838
I-100
s((I3
I1
I0
I0
I0
I0
I1
I1
tI0
tp839
I-100
s((I0
I0
I1
I2
I0
I0
I1
I1
tI7
tp840
I-1
s((I1
I1
I0
I1
I0
I0
I0
I1
tI7
tp841
F-1.4410895509000001
s((I1
I3
I1
I1
I1
I1
I0
I1
tI6
tp842
I-100
s((I1
I1
I0
I0
I0
I1
I1
I1
tI1
tp843
F-4.2523511523115873
s((I0
I0
I3
I1
I1
I0
I2
I1
tI3
tp844
I-100
s((I0
I2
I1
I1
I0
I1
I1
I0
tI6
tp845
F49.909999999999997
s((I1
I2
I1
I1
I1
I0
I0
I1
tI0
tp846
I-1
s((I0
I0
I1
I1
I3
I1
I2
I0
tI4
tp847
I-100
s((I1
I2
I1
I0
I0
I0
I1
I3
tI7
tp848
I-100
s((I3
I1
I1
I0
I0
I1
I1
I1
tI4
tp849
F-5.5669457666074758
s((I0
I1
I0
I0
I3
I1
I1
I1
tI2
tp850
I-100
s((I1
I0
I1
I1
I1
I3
I0
I1
tI3
tp851
I-100
s((I1
I1
I1
I0
I3
I1
I1
I1
tI5
tp852
I-100
s((I1
I1
I1
I0
I3
I0
I0
I1
tI0
tp853
F-4.6688128305368561
s((I3
I1
I0
I0
I0
I0
I0
I0
tI1
tp854
F-4.915932842821281
s((I3
I0
I0
I1
I1
I0
I0
I1
tI0
tp855
I-100
s((I3
I0
I1
I0
I1
I0
I2
I1
tI5
tp856
I-100
s((I3
I0
I1
I1
I0
I1
I0
I0
tI7
tp857
I-100
s((I2
I0
I0
I0
I1
I1
I0
I3
tI7
tp858
F49.62216542972395
s((I0
I0
I3
I0
I1
I2
I1
I1
tI5
tp859
I-100
s((I0
I1
I0
I2
I3
I0
I1
I1
tI4
tp860
I-100
s((I1
I1
I1
I2
I0
I0
I1
I3
tI0
tp861
F19.010764884188475
s((I1
I0
I1
I0
I1
I3
I1
I1
tI2
tp862
I-100
s((I0
I0
I3
I1
I1
I0
I2
I0
tI2
tp863
F49.628442828415295
s((I1
I2
I0
I3
I1
I1
I1
I1
tI7
tp864
I-100
s((I0
I0
I1
I0
I0
I3
I1
I1
tI0
tp865
I-100
s((I1
I1
I1
I0
I3
I2
I1
I1
tI4
tp866
I-100
s((I3
I0
I1
I0
I1
I1
I1
I1
tI0
tp867
F-100.50249020202376
s((I1
I1
I0
I1
I0
I0
I0
I1
tI0
tp868
F-1.4324441868100002
s((I1
I0
I1
I2
I1
I3
I1
I1
tI4
tp869
I-100
s((I1
I1
I1
I0
I0
I0
I1
I1
tI7
tp870
F-2.8287243231245891
s((I0
I1
I0
I0
I0
I1
I1
I1
tI5
tp871
I-100
s((I1
I1
I1
I3
I1
I1
I0
I0
tI6
tp872
I-100
s((I0
I1
I1
I0
I1
I1
I3
I1
tI2
tp873
I-100
s((I3
I2
I1
I0
I0
I0
I1
I1
tI0
tp874
I-100
s((I1
I0
I3
I1
I0
I1
I1
I0
tI5
tp875
I-100
s((I0
I1
I0
I3
I0
I1
I1
I1
tI3
tp876
I-100
s((I0
I1
I1
I0
I0
I0
I1
I0
tI7
tp877
F-1.6840718487636148
s((I0
I0
I3
I1
I0
I1
I1
I1
tI0
tp878
I-100
s((I1
I1
I1
I0
I3
I0
I0
I1
tI7
tp879
I-100
s((I0
I0
I0
I1
I1
I0
I0
I3
tI6
tp880
F-3.5563216279802692
s((I1
I1
I1
I0
I0
I0
I0
I0
tI5
tp881
F-3.1115796212966678
s((I1
I3
I1
I2
I1
I0
I0
I1
tI2
tp882
I-1
s((I0
I0
I3
I2
I1
I0
I1
I1
tI2
tp883
I-100
s((I0
I3
I0
I1
I1
I0
I2
I1
tI0
tp884
I-100
s((I1
I1
I1
I0
I0
I0
I0
I1
tI1
tp885
F-11.165851
s((I3
I1
I1
I0
I1
I1
I0
I1
tI7
tp886
I-100
s((I1
I1
I1
I1
I3
I1
I0
I1
tI6
tp887
F-101.26930937719131
s((I1
I1
I0
I1
I3
I2
I0
I1
tI3
tp888
I-100
s((I0
I0
I1
I1
I0
I0
I0
I1
tI6
tp889
F-2.1059490769281934
s((I0
I1
I3
I0
I0
I0
I0
I0
tI1
tp890
F-4.9619573416436973
s((I0
I1
I0
I0
I0
I1
I1
I1
tI2
tp891
F-1.8847095815059167
s((I0
I0
I1
I0
I1
I2
I0
I1
tI0
tp892
I-1
s((I1
I1
I3
I0
I0
I0
I0
I1
tI2
tp893
F-3.8605227824193578
s((I1
I1
I1
I0
I2
I0
I1
I3
tI4
tp894
I-100
s((I1
I2
I3
I1
I1
I1
I0
I1
tI2
tp895
I-1
s((I0
I0
I0
I1
I1
I0
I0
I1
tI1
tp896
F-2.1695743974931734
s((I0
I0
I0
I1
I3
I1
I1
I1
tI4
tp897
I-100
s((I0
I0
I0
I0
I0
I1
I1
I0
tI5
tp898
F-11.960799658125941
s((I0
I1
I1
I3
I0
I0
I1
I0
tI5
tp899
I-100
s((I1
I0
I1
I0
I0
I0
I1
I3
tI5
tp900
I-100
s((I0
I0
I0
I1
I1
I0
I0
I1
tI5
tp901
F-2.2695737844125743
s((I0
I1
I1
I0
I0
I3
I1
I0
tI7
tp902
F-4.3104241735399427
s((I1
I0
I0
I3
I0
I1
I1
I1
tI4
tp903
F-43.2280463842527
s((I1
I1
I1
I0
I0
I1
I1
I0
tI0
tp904
F-10.990000000000002
s((I3
I1
I0
I0
I0
I2
I1
I0
tI1
tp905
F49.583170752710672
s((I1
I0
I0
I3
I0
I1
I1
I0
tI3
tp906
F-4.3756023993545625
s((I1
I0
I3
I0
I0
I1
I1
I1
tI7
tp907
I-100
s((I1
I1
I1
I0
I0
I3
I1
I1
tI4
tp908
F-4.66782556368491
s((I3
I1
I1
I0
I1
I0
I0
I0
tI6
tp909
I-100
s((I1
I0
I1
I3
I1
I0
I0
I1
tI2
tp910
F-101.05871967713679
s((I0
I1
I1
I0
I1
I0
I3
I0
tI2
tp911
I-100
s((I1
I0
I3
I0
I2
I1
I1
I1
tI7
tp912
I-100
s((I3
I1
I0
I0
I0
I2
I1
I1
tI5
tp913
I-1
s((I0
I1
I1
I0
I1
I0
I2
I0
tI2
tp914
F49.84562223458795
s((I1
I0
I0
I1
I0
I1
I1
I3
tI7
tp915
I-100
s((I0
I0
I3
I0
I1
I0
I1
I1
tI3
tp916
I-100
s((I0
I0
I1
I1
I0
I0
I0
I1
tI1
tp917
F-10.9
s((I0
I0
I1
I0
I1
I0
I0
I1
tI0
tp918
F-4.1289098129088888
s((I0
I0
I1
I0
I1
I1
I1
I1
tI4
tp919
F-19.348112353496859
s((I0
I0
I1
I1
I0
I1
I0
I0
tI7
tp920
F-2.5095816568710045
s((I1
I3
I1
I1
I1
I0
I2
I1
tI7
tp921
I-100
s((I2
I1
I1
I0
I3
I1
I1
I1
tI1
tp922
I-100
s((I1
I0
I0
I1
I0
I1
I3
I1
tI1
tp923
I-100
s((I1
I2
I0
I1
I1
I1
I3
I1
tI4
tp924
I-100
s((I0
I0
I0
I0
I0
I1
I1
I0
tI2
tp925
F-2.4123827538188181
s((I1
I0
I3
I0
I1
I1
I0
I2
tI4
tp926
I-100
s((I1
I1
I1
I0
I2
I3
I1
I1
tI4
tp927
I50
s((I3
I0
I1
I1
I1
I1
I0
I1
tI7
tp928
I-100
s((I1
I1
I1
I0
I0
I0
I1
I0
tI6
tp929
F-4.8085003799672412
s((I1
I0
I1
I1
I1
I1
I0
I0
tI0
tp930
F-4.8959668953911653
s((I1
I0
I3
I0
I0
I1
I1
I2
tI0
tp931
I-1
s((I0
I0
I1
I3
I2
I0
I1
I1
tI5
tp932
I-100
s((I0
I3
I1
I0
I0
I0
I0
I1
tI2
tp933
F-4.6245296188096932
s((I1
I1
I1
I1
I0
I0
I0
I0
tI4
tp934
F-2.1803110946565676
s((I0
I0
I3
I1
I0
I1
I1
I1
tI4
tp935
I-100
s((I1
I0
I1
I3
I1
I0
I1
I1
tI6
tp936
F-100.3166944920965
s((I2
I0
I0
I0
I0
I1
I1
I3
tI0
tp937
I-1
s((I0
I1
I1
I0
I0
I3
I1
I0
tI0
tp938
I-100
s((I1
I0
I0
I1
I0
I1
I3
I0
tI5
tp939
F-2.9042469272288027
s((I0
I0
I0
I1
I1
I0
I0
I0
tI3
tp940
F-12.004896881016011
s((I1
I1
I1
I0
I0
I1
I1
I0
tI7
tp941
F-3.5680553137045563
s((I1
I2
I1
I1
I1
I1
I0
I0
tI6
tp942
I50
s((I1
I0
I1
I1
I1
I1
I0
I1
tI2
tp943
F-11.467933838528644
s((I1
I0
I1
I1
I3
I1
I0
I1
tI5
tp944
F-100.12441613826061
s((I1
I1
I0
I0
I0
I0
I3
I1
tI3
tp945
I-100
s((I1
I0
I1
I3
I0
I0
I1
I0
tI4
tp946
F-4.8608784545116679
s((I0
I1
I0
I2
I0
I1
I1
I1
tI6
tp947
I-1
s((I0
I1
I0
I0
I0
I1
I0
I1
tI3
tp948
F-2.3706425733743757
s((I0
I3
I0
I0
I0
I1
I0
I0
tI5
tp949
I-100
s((I1
I1
I3
I1
I0
I0
I0
I0
tI1
tp950
F-5.1038321331629657
s((I1
I3
I0
I1
I0
I1
I1
I0
tI3
tp951
F-60.423806861118678
s((I0
I1
I0
I0
I2
I0
I1
I1
tI2
tp952
I-1
s((I0
I3
I1
I0
I0
I0
I1
I1
tI3
tp953
I-100
s((I1
I0
I0
I0
I1
I1
I0
I3
tI3
tp954
I-100
s((I0
I0
I1
I0
I1
I0
I0
I1
tI7
tp955
F-10.990000000000002
s((I0
I0
I0
I0
I1
I1
I0
I0
tI6
tp956
F-2.2650519364508739
s((I0
I1
I0
I0
I0
I3
I1
I1
tI2
tp957
I-100
s((I0
I0
I1
I1
I0
I1
I1
I0
tI3
tp958
F-2.5568310745066913
s((I0
I0
I1
I0
I1
I1
I1
I1
tI3
tp959
F-19.502071263408773
s((I0
I0
I3
I0
I1
I1
I0
I0
tI2
tp960
F-4.4051035362970197
s((I0
I2
I0
I0
I1
I3
I1
I1
tI2
tp961
I-100
s((I1
I0
I0
I1
I1
I1
I0
I0
tI5
tp962
F-1.6081491540808668
s((I3
I1
I1
I0
I0
I0
I1
I0
tI7
tp963
I-100
s((I1
I0
I2
I3
I1
I1
I1
I1
tI6
tp964
I-100
s((I0
I1
I1
I0
I0
I1
I3
I1
tI5
tp965
I-100
s((I3
I0
I1
I1
I1
I1
I0
I1
tI0
tp966
I-100
s((I0
I3
I0
I1
I0
I1
I1
I1
tI5
tp967
F-100.63862482806324
s((I1
I0
I0
I1
I0
I1
I0
I3
tI7
tp968
I-100
s((I0
I0
I1
I1
I2
I1
I1
I3
tI4
tp969
I-100
s((I0
I0
I3
I1
I0
I1
I1
I1
tI3
tp970
I-100
s((I1
I0
I1
I1
I1
I1
I0
I3
tI7
tp971
I-100
s((I1
I1
I0
I1
I0
I3
I0
I1
tI7
tp972
I-100
s((I0
I0
I0
I1
I1
I0
I0
I0
tI4
tp973
F-2.2480852183553859
s((I1
I0
I3
I1
I0
I0
I0
I1
tI3
tp974
I-100
s((I1
I3
I0
I0
I1
I0
I1
I1
tI4
tp975
I-100
s((I1
I1
I1
I0
I1
I1
I0
I3
tI6
tp976
I-100
s((I0
I0
I1
I0
I0
I0
I1
I1
tI3
tp977
F-2.3937802527270797
s((I1
I0
I2
I1
I1
I1
I3
I1
tI4
tp978
I-100
s((I1
I3
I1
I0
I1
I0
I1
I1
tI7
tp979
I-100
s((I1
I1
I0
I1
I3
I0
I0
I1
tI5
tp980
I-100
s((I1
I0
I2
I3
I0
I1
I1
I0
tI5
tp981
I50
s((I1
I1
I0
I0
I0
I0
I3
I1
tI4
tp982
I-100
s((I1
I1
I0
I1
I1
I1
I1
I1
tI0
tp983
I-1
s((I0
I3
I1
I0
I0
I0
I1
I1
tI4
tp984
I-100
s((I1
I0
I0
I1
I2
I3
I0
I1
tI3
tp985
I-100
s((I0
I1
I1
I0
I1
I0
I0
I3
tI5
tp986
I-100
s((I0
I3
I1
I1
I1
I1
I0
I1
tI1
tp987
I-100
s((I1
I1
I3
I0
I0
I1
I1
I1
tI7
tp988
I-100
s((I0
I0
I0
I0
I1
I1
I0
I3
tI2
tp989
I-100
s((I1
I1
I1
I1
I0
I1
I3
I1
tI3
tp990
F-101.0020174594665
s((I1
I0
I0
I0
I3
I1
I1
I0
tI5
tp991
I-100
s((I2
I1
I0
I0
I0
I0
I1
I3
tI5
tp992
I-1
s((I0
I1
I0
I0
I0
I0
I1
I0
tI4
tp993
F-11.071000000000002
s((I1
I0
I0
I1
I1
I1
I0
I0
tI2
tp994
F-1.533254189270941
s((I3
I0
I0
I0
I0
I1
I0
I2
tI6
tp995
I-100
s((I1
I1
I1
I3
I0
I1
I1
I1
tI4
tp996
F-4.108289988602829
s((I0
I1
I1
I0
I1
I3
I0
I0
tI4
tp997
I-100
s((I0
I1
I3
I0
I0
I2
I0
I0
tI4
tp998
I-100
s((I1
I0
I0
I0
I3
I1
I1
I0
tI0
tp999
F-4.8616609850920733
s((I1
I1
I1
I0
I2
I3
I1
I0
tI4
tp1000
F49.421237680532585
s((I0
I3
I1
I0
I1
I1
I1
I1
tI0
tp1001
F-101.6007104783603
s((I0
I3
I1
I0
I1
I0
I0
I1
tI4
tp1002
I-100
s((I1
I1
I0
I1
I2
I3
I0
I0
tI5
tp1003
I-1
s((I0
I0
I1
I1
I1
I1
I0
I1
tI6
tp1004
F-11.561503773968303
s((I1
I3
I0
I0
I1
I0
I1
I1
tI3
tp1005
I-100
s((I1
I1
I1
I3
I0
I1
I0
I0
tI6
tp1006
I-100
s((I1
I0
I0
I1
I3
I1
I1
I0
tI1
tp1007
F-100.19118700931095
s((I1
I0
I1
I1
I0
I1
I3
I1
tI2
tp1008
I-100
s((I3
I0
I0
I0
I0
I1
I2
I0
tI2
tp1009
F40.957676768817834
s((I0
I0
I3
I0
I0
I1
I0
I0
tI3
tp1010
F-10.022333886510529
s((I1
I1
I1
I1
I0
I0
I0
I3
tI3
tp1011
I-100
s((I0
I2
I1
I1
I0
I3
I0
I1
tI6
tp1012
F49.615189461684849
s((I1
I1
I1
I3
I2
I0
I1
I1
tI7
tp1013
I-100
s((I0
I1
I1
I0
I0
I0
I1
I0
tI2
tp1014
F-1.7478223339248589
s((I1
I0
I1
I0
I1
I0
I1
I1
tI4
tp1015
F-3.3580353252205186
s((I0
I1
I1
I2
I1
I1
I0
I1
tI0
tp1016
I-100
s((I1
I2
I1
I1
I1
I1
I0
I3
tI5
tp1017
I-100
s((I1
I0
I0
I1
I3
I0
I0
I1
tI1
tp1018
F-4.8544131807616306
s((I0
I3
I1
I1
I1
I1
I0
I1
tI6
tp1019
I-100
s((I2
I0
I1
I0
I0
I0
I0
I1
tI3
tp1020
I-1
s((I3
I1
I0
I0
I2
I0
I1
I1
tI4
tp1021
I50
s((I1
I0
I0
I0
I1
I1
I0
I3
tI1
tp1022
I-100
s((I1
I1
I0
I1
I0
I3
I2
I1
tI6
tp1023
I-100
s((I0
I0
I0
I2
I0
I1
I0
I0
tI4
tp1024
I-1
s((I1
I2
I0
I0
I1
I0
I1
I1
tI6
tp1025
I50
s((I3
I0
I1
I1
I0
I0
I0
I1
tI5
tp1026
I-100
s((I1
I0
I1
I1
I1
I1
I2
I1
tI4
tp1027
I-1
s((I1
I0
I3
I0
I1
I0
I1
I1
tI7
tp1028
I-100
s((I1
I0
I0
I1
I1
I1
I0
I3
tI0
tp1029
I-100
s((I1
I3
I1
I1
I1
I1
I0
I0
tI1
tp1030
I-100
s((I1
I1
I1
I0
I0
I1
I0
I0
tI3
tp1031
F-10.9
s((I0
I0
I3
I1
I1
I0
I0
I0
tI4
tp1032
I-100
s((I0
I3
I1
I1
I0
I1
I0
I0
tI0
tp1033
I-100
s((I3
I0
I0
I0
I1
I1
I0
I0
tI3
tp1034
F-4.4441714213788934
s((I0
I0
I1
I0
I3
I2
I1
I1
tI7
tp1035
I-1
s((I0
I0
I0
I1
I0
I1
I1
I1
tI7
tp1036
F-16.342212296279769
s((I2
I0
I1
I1
I0
I1
I0
I0
tI3
tp1037
I-1
s((I2
I1
I1
I0
I1
I0
I0
I3
tI3
tp1038
I-100
s((I1
I0
I0
I1
I3
I1
I0
I1
tI2
tp1039
F-100.19005626283106
s((I0
I3
I1
I0
I0
I2
I0
I1
tI6
tp1040
I-100
s((I3
I0
I1
I0
I0
I0
I1
I1
tI1
tp1041
F-4.0828159305132168
s((I1
I1
I1
I3
I0
I1
I1
I2
tI3
tp1042
F49.685881139530373
s((I1
I1
I0
I1
I0
I3
I0
I2
tI2
tp1043
I-100
s((I1
I1
I1
I0
I3
I1
I1
I1
tI7
tp1044
I-100
s((I3
I0
I1
I1
I0
I1
I1
I0
tI4
tp1045
F-4.727266705295837
s((I0
I1
I1
I0
I0
I0
I1
I0
tI5
tp1046
F-1.8343293826194029
s((I0
I2
I0
I1
I1
I0
I0
I1
tI4
tp1047
I-1
s((I0
I0
I1
I1
I3
I1
I0
I0
tI0
tp1048
I-100
s((I0
I0
I0
I2
I1
I1
I0
I3
tI1
tp1049
I-100
s((I1
I0
I3
I1
I0
I1
I2
I0
tI7
tp1050
I-100
s((I0
I1
I1
I0
I0
I1
I0
I1
tI6
tp1051
F-1.515667536120844
s((I1
I0
I3
I1
I0
I1
I0
I0
tI5
tp1052
I-100
s((I1
I1
I0
I0
I3
I0
I0
I1
tI2
tp1053
I-100
s((I0
I3
I0
I1
I1
I0
I0
I0
tI0
tp1054
I-100
s((I2
I0
I0
I0
I3
I1
I1
I0
tI5
tp1055
I-100
s((I1
I0
I0
I1
I1
I1
I3
I0
tI2
tp1056
I-100
s((I3
I0
I1
I1
I0
I0
I0
I1
tI2
tp1057
F-4.0296439580164725
s((I1
I0
I1
I1
I2
I1
I1
I1
tI5
tp1058
I-1
s((I0
I1
I0
I0
I0
I3
I1
I0
tI0
tp1059
I-100
s((I1
I1
I1
I3
I0
I0
I0
I1
tI5
tp1060
I-100
s((I1
I0
I0
I1
I1
I1
I0
I3
tI7
tp1061
I-100
s((I0
I3
I0
I1
I1
I0
I0
I1
tI2
tp1062
F-5.0876924237262742
s((I0
I0
I1
I0
I0
I0
I0
I1
tI0
tp1063
F-2.0630250003598203
s((I1
I1
I1
I0
I0
I1
I1
I1
tI3
tp1064
F-2.8523156624637713
s((I1
I1
I1
I0
I0
I3
I1
I2
tI6
tp1065
I-100
s((I1
I1
I1
I3
I0
I1
I1
I2
tI4
tp1066
I-1
s((I0
I1
I0
I2
I0
I3
I1
I1
tI1
tp1067
I-100
s((I2
I0
I3
I1
I1
I0
I0
I1
tI4
tp1068
I-100
s((I0
I1
I0
I0
I3
I0
I1
I1
tI5
tp1069
I-100
s((I0
I0
I3
I1
I1
I0
I0
I1
tI0
tp1070
I-100
s((I1
I1
I0
I3
I0
I0
I0
I1
tI3
tp1071
I-100
s((I0
I0
I0
I1
I1
I0
I2
I0
tI3
tp1072
I-1
s((I3
I1
I0
I0
I0
I1
I1
I1
tI4
tp1073
F-4.7794804952901062
s((I1
I1
I1
I0
I0
I2
I0
I3
tI4
tp1074
I-100
s((I1
I3
I1
I0
I1
I2
I0
I1
tI2
tp1075
I-1
s((I2
I1
I3
I0
I0
I1
I1
I1
tI0
tp1076
I-1
s((I1
I1
I1
I2
I3
I1
I1
I1
tI3
tp1077
I-100
s((I0
I0
I1
I0
I3
I0
I0
I1
tI3
tp1078
I-100
s((I0
I2
I0
I0
I1
I1
I0
I0
tI1
tp1079
I-1
s((I0
I1
I0
I0
I0
I3
I1
I0
tI7
tp1080
F-4.1752650552483157
s((I3
I0
I1
I0
I1
I0
I0
I1
tI7
tp1081
I-100
s((I0
I1
I1
I0
I1
I1
I3
I1
tI4
tp1082
I-100
s((I0
I1
I3
I2
I0
I1
I0
I1
tI0
tp1083
I50
s((I0
I1
I3
I0
I0
I0
I1
I0
tI6
tp1084
I-100
s((I1
I1
I1
I1
I0
I1
I0
I1
tI7
tp1085
F-18.643556943232991
s((I1
I1
I1
I1
I3
I1
I0
I1
tI0
tp1086
F-101.02058002765794
s((I1
I1
I1
I0
I0
I1
I0
I3
tI7
tp1087
I-100
s((I3
I2
I1
I1
I1
I1
I0
I1
tI7
tp1088
I-100
s((I3
I1
I1
I0
I0
I1
I0
I1
tI0
tp1089
I-100
s((I0
I2
I1
I1
I1
I1
I3
I1
tI6
tp1090
F6.1571893638060464
s((I1
I1
I1
I1
I3
I0
I0
I0
tI2
tp1091
I-100
s((I0
I1
I0
I3
I2
I1
I1
I1
tI6
tp1092
I-100
s((I3
I1
I1
I2
I1
I0
I0
I0
tI4
tp1093
I-100
s((I0
I0
I1
I1
I2
I3
I0
I1
tI1
tp1094
I-100
s((I0
I1
I3
I0
I0
I1
I0
I1
tI4
tp1095
I-100
s((I0
I0
I1
I0
I0
I3
I0
I1
tI0
tp1096
I-100
s((I1
I0
I3
I1
I1
I1
I2
I1
tI0
tp1097
I-100
s((I2
I3
I1
I1
I0
I1
I1
I0
tI4
tp1098
I-100
s((I1
I1
I1
I0
I0
I0
I3
I1
tI6
tp1099
F-100.11405781000001
s((I1
I1
I2
I3
I0
I1
I1
I1
tI0
tp1100
I-100
s((I0
I1
I0
I0
I0
I1
I3
I1
tI7
tp1101
F-4.5260715225809811
s((I0
I1
I1
I0
I1
I2
I0
I0
tI5
tp1102
I-1
s((I1
I3
I1
I1
I1
I2
I0
I1
tI1
tp1103
F48.99000497455841
s((I1
I1
I0
I3
I0
I1
I1
I1
tI4
tp1104
F-6.1964619487397812
s((I0
I1
I1
I0
I3
I1
I1
I1
tI6
tp1105
I-100
s((I1
I1
I0
I0
I3
I1
I1
I1
tI5
tp1106
I-100
s((I0
I1
I1
I0
I0
I0
I1
I3
tI0
tp1107
F-4.0497891421608667
s((I0
I3
I0
I1
I1
I2
I0
I0
tI4
tp1108
I-100
s((I1
I1
I1
I0
I0
I0
I0
I3
tI4
tp1109
I-100
s((I1
I1
I1
I0
I0
I3
I1
I0
tI5
tp1110
I-100
s((I0
I2
I0
I0
I1
I1
I0
I0
tI6
tp1111
F49.811282492726718
s((I1
I1
I0
I0
I0
I0
I0
I1
tI4
tp1112
I-100
s((I0
I0
I0
I1
I1
I3
I0
I0
tI3
tp1113
F-4.3655076900886804
s((I0
I1
I2
I0
I0
I1
I3
I1
tI2
tp1114
I-100
s((I1
I1
I1
I0
I0
I0
I1
I0
tI2
tp1115
F-4.8004660577762754
s((I2
I1
I0
I0
I3
I0
I1
I0
tI1
tp1116
I-1
s((I1
I1
I1
I3
I0
I0
I0
I0
tI5
tp1117
I-100
s((I0
I0
I1
I0
I3
I0
I1
I1
tI3
tp1118
I-100
s((I1
I1
I1
I2
I0
I0
I0
I3
tI4
tp1119
I-100
s((I1
I0
I0
I1
I0
I3
I0
I1
tI5
tp1120
F-4.5342753180075102
s((I0
I0
I1
I3
I0
I0
I1
I1
tI1
tp1121
I-100
s((I0
I1
I0
I2
I3
I1
I1
I1
tI7
tp1122
I-1
s((I1
I2
I0
I1
I1
I1
I0
I0
tI3
tp1123
I-1
s((I0
I0
I1
I0
I0
I3
I0
I1
tI7
tp1124
F-4.2948878448524512
s((I1
I0
I1
I1
I1
I1
I3
I0
tI5
tp1125
I-100
s((I1
I3
I1
I1
I0
I1
I1
I1
tI3
tp1126
F-100.94952436137581
s((I3
I0
I0
I1
I1
I0
I0
I0
tI5
tp1127
F-10
s((I0
I1
I0
I0
I0
I1
I3
I1
tI0
tp1128
I-100
s((I1
I0
I3
I0
I0
I1
I1
I0
tI6
tp1129
I-100
s((I0
I0
I1
I1
I0
I1
I3
I0
tI5
tp1130
I-100
s((I0
I2
I0
I1
I1
I3
I0
I1
tI0
tp1131
I-100
s((I1
I1
I3
I1
I0
I2
I0
I1
tI4
tp1132
I-100
s((I0
I1
I0
I0
I0
I0
I1
I1
tI2
tp1133
F-2.8599504923796988
s((I1
I1
I1
I2
I0
I1
I0
I3
tI7
tp1134
I-100
s((I1
I1
I0
I1
I0
I3
I0
I2
tI7
tp1135
I-100
s((I0
I0
I0
I1
I1
I0
I2
I0
tI6
tp1136
I-1
s((I3
I0
I1
I0
I1
I1
I1
I1
tI4
tp1137
F-100.72949974451869
s((I1
I0
I0
I0
I1
I0
I1
I1
tI1
tp1138
F-11.316941354008115
s((I1
I1
I1
I0
I2
I0
I1
I1
tI7
tp1139
I-1
s((I1
I0
I3
I1
I1
I1
I0
I1
tI5
tp1140
I-100
s((I1
I3
I1
I1
I0
I1
I0
I1
tI1
tp1141
I-100
s((I1
I0
I1
I1
I1
I0
I0
I1
tI7
tp1142
F-4.3142936183386267
s((I1
I0
I1
I0
I0
I0
I1
I0
tI2
tp1143
F-1.8272042775903674
s((I1
I0
I0
I1
I2
I1
I3
I0
tI7
tp1144
I-100
s((I0
I0
I3
I1
I1
I2
I0
I0
tI1
tp1145
I50
s((I1
I1
I1
I3
I0
I0
I0
I0
tI2
tp1146
I-100
s((I0
I1
I1
I0
I3
I1
I1
I1
tI1
tp1147
I-100
s((I1
I0
I3
I1
I1
I1
I0
I2
tI5
tp1148
I-100
s((I1
I0
I3
I0
I1
I1
I1
I1
tI4
tp1149
I-100
s((I1
I1
I1
I3
I0
I0
I1
I1
tI5
tp1150
I-100
s((I2
I1
I0
I0
I0
I1
I3
I1
tI1
tp1151
I-100
s((I0
I1
I0
I3
I0
I0
I1
I0
tI3
tp1152
F-3.9857969979348025
s((I0
I0
I2
I0
I1
I3
I1
I1
tI6
tp1153
I-1
s((I1
I1
I3
I0
I0
I1
I1
I1
tI3
tp1154
I-100
s((I1
I3
I1
I0
I1
I0
I0
I1
tI1
tp1155
F-5.371854592050104
s((I1
I0
I1
I3
I1
I0
I2
I1
tI6
tp1156
I-100
s((I0
I1
I0
I0
I0
I0
I1
I1
tI5
tp1157
F-11.640294089111165
s((I1
I0
I0
I0
I1
I1
I1
I1
tI2
tp1158
F-2.0923275785060049
s((I3
I0
I1
I1
I1
I1
I2
I1
tI4
tp1159
I-100
s((I1
I3
I1
I1
I0
I1
I0
I0
tI4
tp1160
I-100
s((I1
I1
I3
I1
I0
I0
I0
I2
tI7
tp1161
I-100
s((I1
I1
I1
I1
I0
I0
I2
I0
tI1
tp1162
I-1
s((I1
I1
I1
I1
I0
I3
I0
I0
tI3
tp1163
F-4.6219135227002779
s((I1
I0
I0
I1
I0
I1
I1
I0
tI6
tp1164
I-100
s((I1
I0
I3
I0
I0
I1
I1
I1
tI2
tp1165
I-100
s((I1
I0
I0
I0
I1
I0
I1
I1
tI6
tp1166
F-1.664808924471465
s((I1
I1
I2
I0
I0
I0
I0
I1
tI2
tp1167
I-1
s((I1
I2
I0
I1
I0
I3
I0
I1
tI1
tp1168
I-100
s((I1
I3
I1
I1
I0
I1
I0
I1
tI6
tp1169
I-100
s((I1
I0
I0
I1
I0
I1
I0
I0
tI5
tp1170
F-11.30517004317859
s((I3
I0
I1
I0
I0
I0
I1
I1
tI2
tp1171
I-100
s((I0
I1
I3
I0
I0
I1
I1
I1
tI0
tp1172
F-4.4383212014205915
s((I0
I1
I0
I0
I0
I0
I0
I0
tI7
tp1173
I-100
s((I1
I0
I0
I0
I1
I1
I0
I0
tI4
tp1174
F-1.6936190916183074
s((I0
I1
I1
I0
I0
I1
I1
I1
tI5
tp1175
F-2.648437068993609
s((I0
I1
I0
I3
I0
I1
I1
I1
tI6
tp1176
I-100
s((I0
I1
I1
I0
I1
I1
I0
I1
tI1
tp1177
F-3.1295605588434592
s((I1
I2
I1
I3
I1
I0
I1
I1
tI4
tp1178
I-100
s((I0
I1
I1
I0
I3
I1
I0
I1
tI6
tp1179
I-100
s((I1
I0
I1
I1
I0
I1
I3
I0
tI7
tp1180
I-100
s((I1
I1
I3
I1
I0
I0
I2
I0
tI3
tp1181
I-1
s((I1
I0
I0
I1
I0
I1
I0
I1
tI1
tp1182
F-10.16119
s((I1
I1
I1
I3
I0
I0
I1
I1
tI2
tp1183
I-100
s((I1
I0
I3
I1
I2
I1
I1
I0
tI7
tp1184
I-100
s((I2
I1
I0
I0
I0
I1
I3
I1
tI6
tp1185
I-100
s((I0
I0
I1
I1
I0
I1
I3
I0
tI1
tp1186
I-100
s((I3
I0
I0
I1
I0
I1
I1
I1
tI6
tp1187
I-100
s((I0
I0
I1
I1
I1
I1
I3
I1
tI0
tp1188
I-100
s((I0
I1
I1
I2
I3
I1
I1
I1
tI5
tp1189
I-100
s((I1
I0
I1
I1
I0
I1
I0
I3
tI1
tp1190
I-100
s((I1
I1
I1
I0
I2
I0
I0
I0
tI2
tp1191
I-1
s((I0
I0
I3
I1
I2
I1
I1
I1
tI3
tp1192
I-100
s((I0
I0
I0
I0
I0
I1
I0
I0
tI2
tp1193
F-4.0890558331355358
s((I0
I1
I3
I0
I2
I1
I0
I1
tI7
tp1194
I-1
s((I0
I0
I1
I1
I0
I1
I1
I3
tI0
tp1195
I-100
s((I1
I2
I1
I1
I1
I3
I0
I1
tI0
tp1196
I-100
s((I0
I0
I1
I1
I0
I1
I2
I0
tI0
tp1197
I-1
s((I1
I1
I0
I1
I0
I0
I0
I0
tI6
tp1198
F-2.6428906850543488
s((I3
I0
I0
I0
I1
I1
I0
I2
tI6
tp1199
I-100
s((I1
I0
I3
I0
I1
I1
I0
I0
tI1
tp1200
I-100
s((I1
I0
I3
I1
I0
I1
I0
I1
tI1
tp1201
I-100
s((I1
I1
I1
I0
I0
I1
I1
I3
tI2
tp1202
I-100
s((I0
I1
I3
I0
I0
I1
I1
I1
tI7
tp1203
F-4.4451556397583838
s((I0
I1
I1
I0
I3
I1
I0
I1
tI1
tp1204
I-100
s((I0
I0
I0
I0
I0
I1
I1
I3
tI4
tp1205
I-100
s((I0
I3
I1
I1
I0
I1
I1
I0
tI7
tp1206
I-100
s((I1
I1
I1
I1
I0
I0
I2
I0
tI6
tp1207
I-1
s((I0
I1
I1
I0
I1
I1
I3
I1
tI0
tp1208
I-100
s((I1
I0
I0
I3
I1
I1
I1
I1
tI3
tp1209
I-100
s((I1
I0
I1
I1
I1
I1
I3
I1
tI1
tp1210
I-100
s((I0
I1
I0
I0
I3
I0
I1
I0
tI4
tp1211
I-100
s((I1
I0
I0
I0
I0
I1
I1
I1
tI4
tp1212
F-10.787994810525309
s((I0
I0
I0
I0
I1
I3
I1
I1
tI3
tp1213
I-100
s((I0
I1
I0
I0
I0
I0
I3
I0
tI6
tp1214
I-100
s((I1
I0
I0
I1
I1
I1
I2
I0
tI0
tp1215
I-1
s((I1
I0
I0
I1
I0
I0
I0
I1
tI4
tp1216
F-1.6044787988145148
s((I0
I0
I1
I0
I2
I0
I1
I1
tI5
tp1217
I-1
s((I1
I3
I1
I1
I1
I0
I0
I1
tI4
tp1218
I-100
s((I3
I1
I0
I0
I0
I0
I1
I0
tI2
tp1219
I-100
s((I0
I0
I0
I0
I0
I1
I0
I2
tI2
tp1220
I-1
s((I0
I3
I1
I1
I0
I0
I0
I1
tI3
tp1221
I-100
s((I1
I1
I1
I3
I0
I0
I1
I0
tI7
tp1222
I-100
s((I1
I1
I1
I0
I3
I0
I1
I1
tI3
tp1223
I-100
s((I0
I0
I1
I1
I3
I1
I1
I0
tI3
tp1224
I-100
s((I0
I1
I0
I0
I0
I0
I1
I2
tI0
tp1225
I-1
s((I1
I1
I1
I0
I1
I1
I0
I1
tI0
tp1226
I-100
s((I0
I0
I0
I0
I1
I1
I3
I0
tI4
tp1227
I-100
s((I0
I3
I1
I0
I1
I0
I2
I1
tI6
tp1228
I-100
s((I1
I1
I1
I0
I1
I1
I0
I0
tI6
tp1229
F-2.8754200578260218
s((I1
I0
I0
I1
I1
I1
I3
I1
tI2
tp1230
I-100
s((I3
I1
I0
I0
I0
I1
I0
I1
tI4
tp1231
F-10
s((I3
I0
I1
I1
I2
I0
I0
I1
tI1
tp1232
I-1
s((I1
I0
I1
I1
I0
I1
I1
I1
tI0
tp1233
F-18.570971748960417
s((I1
I0
I1
I0
I1
I0
I0
I1
tI7
tp1234
F-3.9666763965029221
s((I0
I0
I0
I0
I3
I1
I1
I0
tI2
tp1235
I-100
s((I1
I0
I0
I1
I1
I1
I0
I1
tI0
tp1236
F-3.9104198801791172
s((I0
I0
I0
I1
I0
I1
I1
I1
tI2
tp1237
F-18.739890237204726
s((I1
I3
I1
I0
I0
I0
I1
I0
tI4
tp1238
I-100
s((I1
I0
I0
I3
I1
I1
I0
I0
tI2
tp1239
I-100
s((I1
I3
I1
I1
I1
I1
I0
I2
tI4
tp1240
I-100
s((I1
I0
I0
I1
I3
I0
I2
I1
tI2
tp1241
I-100
s((I1
I0
I0
I0
I1
I3
I1
I1
tI3
tp1242
I-100
s((I1
I0
I0
I3
I1
I1
I1
I1
tI4
tp1243
I-100
s((I0
I1
I0
I0
I0
I3
I1
I1
tI6
tp1244
I-100
s((I1
I1
I0
I0
I0
I0
I0
I1
tI3
tp1245
F-2.1812876850791953
s((I1
I1
I1
I0
I1
I1
I0
I3
tI1
tp1246
I-100
s((I1
I1
I3
I1
I0
I0
I0
I1
tI6
tp1247
I-100
s((I0
I3
I1
I1
I0
I1
I2
I0
tI5
tp1248
I-100
s((I0
I1
I1
I0
I0
I1
I1
I1
tI2
tp1249
F-2.6255673135580868
s((I1
I0
I0
I0
I0
I1
I1
I0
tI2
tp1250
F-2.0025908073525436
s((I1
I1
I1
I3
I1
I1
I0
I1
tI0
tp1251
F-100.11953550871
s((I1
I0
I1
I1
I1
I0
I0
I1
tI1
tp1252
F-11.415045070000001
s((I1
I1
I1
I0
I1
I1
I0
I0
tI1
tp1253
F-2.8477853855410205
s((I0
I0
I1
I1
I3
I0
I0
I1
tI1
tp1254
F-4.1184362981775431
s((I3
I0
I2
I1
I0
I1
I1
I1
tI2
tp1255
I-100
s((I0
I2
I0
I1
I1
I0
I0
I3
tI2
tp1256
I-100
s((I0
I2
I1
I1
I0
I1
I1
I3
tI6
tp1257
F49.283169516356431
s((I0
I0
I0
I0
I1
I0
I1
I1
tI2
tp1258
F-1.9479280247241124
s((I1
I1
I0
I0
I3
I1
I1
I1
tI2
tp1259
I-100
s((I0
I0
I1
I0
I2
I0
I0
I1
tI4
tp1260
I50
s((I1
I0
I1
I1
I3
I1
I1
I1
tI3
tp1261
F-100.99913985361
s((I3
I1
I2
I0
I0
I0
I1
I0
tI4
tp1262
I-1
s((I1
I1
I1
I3
I0
I1
I1
I0
tI4
tp1263
F-10
s((I0
I0
I1
I1
I0
I3
I0
I1
tI1
tp1264
I-100
s((I3
I0
I0
I0
I0
I1
I1
I0
tI0
tp1265
I-100
s((I1
I0
I0
I1
I0
I0
I3
I1
tI5
tp1266
F-4.6623528163038026
s((I3
I1
I0
I0
I0
I0
I0
I0
tI5
tp1267
F-3.60772758813737
s((I3
I0
I0
I1
I1
I0
I0
I1
tI6
tp1268
I-100
s((I3
I0
I1
I1
I0
I1
I0
I0
tI1
tp1269
I-100
s((I3
I1
I2
I0
I0
I1
I0
I1
tI6
tp1270
I-100
s((I1
I0
I1
I1
I0
I1
I0
I0
tI5
tp1271
F-2.4481834070657773
s((I0
I2
I1
I1
I0
I1
I0
I3
tI2
tp1272
I-100
s((I3
I1
I0
I0
I0
I0
I1
I0
tI5
tp1273
F-4.5620404595014534
s((I1
I1
I0
I3
I2
I0
I0
I1
tI3
tp1274
I-100
s((I0
I0
I1
I0
I0
I3
I1
I1
tI6
tp1275
F-4.4999674070979294
s((I0
I3
I0
I1
I1
I0
I0
I2
tI1
tp1276
I-1
s((I3
I1
I0
I0
I0
I0
I1
I1
tI3
tp1277
I-100
s((I3
I0
I1
I0
I1
I1
I1
I1
tI1
tp1278
F-100.90255433663749
s((I1
I1
I0
I1
I0
I0
I0
I1
tI6
tp1279
F-1.4301370200978831
s((I1
I1
I0
I0
I0
I1
I1
I1
tI2
tp1280
F-4.1401460448522505
s((I3
I1
I1
I0
I1
I0
I0
I2
tI7
tp1281
I-100
s((I1
I1
I1
I0
I1
I1
I3
I1
tI6
tp1282
F-101.55291016334277
s((I1
I2
I1
I0
I0
I0
I1
I3
tI6
tp1283
I50
s((I3
I1
I1
I0
I0
I1
I1
I1
tI7
tp1284
I-100
s((I3
I1
I2
I0
I0
I0
I1
I0
tI3
tp1285
I-1
s((I2
I0
I1
I1
I1
I1
I3
I1
tI7
tp1286
F49.875555747951296
s((I0
I1
I0
I0
I3
I1
I1
I1
tI3
tp1287
I-100
s((I1
I0
I3
I1
I0
I1
I1
I0
tI4
tp1288
I-100
s((I0
I0
I0
I0
I1
I3
I1
I1
tI4
tp1289
I-100
s((I1
I1
I0
I1
I0
I3
I0
I0
tI5
tp1290
F-4.1239018971792971
s((I1
I0
I0
I1
I0
I0
I3
I1
tI2
tp1291
I-100
s((I0
I3
I1
I0
I0
I2
I1
I1
tI3
tp1292
I-100
s((I1
I1
I1
I0
I3
I0
I0
I1
tI1
tp1293
F-4.707904490870094
s((I1
I3
I1
I1
I1
I1
I2
I1
tI2
tp1294
F47.976137529904143
s((I1
I0
I1
I0
I0
I2
I1
I3
tI6
tp1295
I-1
s((I3
I0
I1
I1
I0
I1
I0
I0
tI6
tp1296
I-100
s((I1
I0
I0
I1
I2
I0
I0
I1
tI6
tp1297
I-1
s((I1
I0
I0
I0
I1
I3
I1
I1
tI2
tp1298
I-100
s((I1
I1
I1
I0
I3
I2
I1
I1
tI7
tp1299
I-100
s((I1
I1
I1
I0
I3
I1
I1
I1
tI4
tp1300
I-100
s((I0
I1
I2
I0
I0
I1
I3
I1
tI0
tp1301
I-100
s((I3
I0
I0
I1
I1
I0
I2
I0
tI1
tp1302
I-1
s((I1
I1
I1
I0
I0
I0
I1
I1
tI0
tp1303
F-10.16119
s((I0
I1
I0
I0
I0
I1
I1
I1
tI4
tp1304
F-1.8533303429648631
s((I1
I2
I0
I0
I1
I1
I0
I0
tI2
tp1305
I-1
s((I3
I1
I2
I0
I0
I0
I0
I0
tI7
tp1306
I-100
s((I0
I1
I1
I0
I0
I1
I3
I1
tI1
tp1307
I-100
s((I0
I0
I0
I1
I3
I1
I1
I1
tI2
tp1308
I-100
s((I1
I0
I2
I1
I1
I1
I3
I1
tI6
tp1309
I-1
s((I0
I0
I0
I1
I1
I0
I0
I3
tI7
tp1310
F-3.5133243291486878
s((I1
I1
I1
I0
I0
I0
I0
I0
tI6
tp1311
F-3.4580670980004942
s((I0
I3
I0
I0
I1
I0
I1
I1
tI0
tp1312
I-100
s((I3
I1
I0
I0
I0
I2
I0
I0
tI1
tp1313
I50
s((I1
I0
I1
I1
I1
I1
I0
I1
tI7
tp1314
F-3.299941459061253
s((I1
I1
I2
I1
I0
I3
I0
I1
tI5
tp1315
F49.417354175673452
s((I1
I0
I0
I3
I0
I1
I1
I1
tI2
tp1316
I-100
s((I1
I1
I1
I0
I0
I0
I0
I1
tI0
tp1317
F-2.8014223239050633
s((I0
I0
I1
I1
I1
I1
I3
I1
tI1
tp1318
I-100
s((I1
I0
I1
I3
I1
I0
I0
I1
tI4
tp1319
F-100.37348407907356
s((I3
I1
I1
I0
I1
I1
I0
I1
tI6
tp1320
I-100
s((I3
I1
I1
I0
I0
I1
I0
I1
tI6
tp1321
I-100
s((I1
I3
I1
I0
I1
I0
I0
I1
tI7
tp1322
I-100
s((I0
I0
I1
I1
I0
I0
I0
I1
tI7
tp1323
F-2.1019671047055439
s((I1
I2
I1
I1
I1
I1
I3
I0
tI7
tp1324
I-100
s((I0
I1
I3
I0
I0
I0
I0
I0
tI0
tp1325
F-4.871731493645008
s((I1
I1
I3
I0
I0
I0
I0
I1
tI5
tp1326
I-100
s((I0
I0
I0
I1
I1
I0
I0
I1
tI2
tp1327
F-2.2973280294241363
s((I1
I1
I1
I0
I1
I1
I3
I0
tI3
tp1328
I-100
s((I0
I0
I0
I1
I3
I1
I1
I1
tI5
tp1329
I-100
s((I1
I2
I0
I1
I1
I1
I0
I1
tI6
tp1330
I50
s((I0
I0
I0
I0
I0
I1
I1
I0
tI4
tp1331
F-11.269900079702884
s((I0
I1
I1
I3
I0
I0
I1
I0
tI4
tp1332
F0.52030494407687122
s((I0
I3
I1
I0
I0
I0
I0
I1
tI4
tp1333
I-100
s((I1
I0
I1
I0
I0
I0
I1
I3
tI4
tp1334
I-100
s((I0
I1
I1
I0
I0
I3
I1
I0
tI6
tp1335
I-100
s((I1
I0
I0
I3
I0
I1
I1
I1
tI5
tp1336
F-37.919340028948753
s((I2
I0
I0
I1
I1
I3
I0
I0
tI4
tp1337
I-100
s((I1
I1
I1
I0
I0
I1
I1
I0
tI1
tp1338
F-3.6474704892194709
s((I1
I0
I0
I3
I0
I1
I1
I0
tI2
tp1339
I-100
s((I1
I3
I0
I1
I0
I1
I1
I0
tI6
tp1340
I-100
s((I1
I0
I3
I0
I0
I1
I1
I1
tI4
tp1341
I-100
s((I1
I1
I0
I0
I0
I0
I3
I1
tI0
tp1342
I-100
s((I3
I2
I1
I0
I1
I0
I0
I1
tI0
tp1343
I-100
s((I1
I0
I3
I0
I1
I0
I1
I1
tI3
tp1344
I-100
s((I1
I0
I1
I3
I1
I0
I0
I1
tI3
tp1345
F-100.46015778259419
s((I0
I1
I1
I0
I1
I0
I3
I0
tI5
tp1346
I-100
s((I3
I1
I0
I0
I0
I2
I1
I1
tI4
tp1347
I-1
s((I1
I0
I0
I1
I0
I1
I1
I3
tI4
tp1348
I-100
s((I0
I0
I3
I0
I1
I0
I1
I1
tI2
tp1349
I-100
s((I0
I0
I1
I0
I1
I0
I0
I1
tI1
tp1350
F-4.1484890692922143
s((I1
I0
I2
I0
I1
I1
I0
I3
tI1
tp1351
I-100
s((I0
I0
I1
I0
I1
I1
I1
I1
tI5
tp1352
F-17.849737323889332
s((I0
I0
I1
I1
I0
I1
I0
I0
tI4
tp1353
F-11.245305439000001
s((I1
I3
I1
I1
I1
I0
I2
I1
tI6
tp1354
I-100
s((I1
I1
I0
I0
I0
I0
I2
I1
tI2
tp1355
I50
s((I0
I3
I1
I2
I1
I1
I1
I1
tI1
tp1356
I-100
s((I1
I0
I0
I1
I0
I1
I3
I1
tI6
tp1357
F-1.2639369214124396
s((I1
I2
I0
I1
I1
I1
I3
I1
tI7
tp1358
I-100
s((I3
I1
I1
I0
I0
I0
I1
I0
tI1
tp1359
F-4.2261642356321936
s((I1
I1
I1
I0
I2
I3
I1
I1
tI3
tp1360
I-100
s((I3
I0
I1
I1
I1
I1
I0
I1
tI6
tp1361
I-100
s((I1
I1
I1
I0
I0
I0
I1
I0
tI5
tp1362
F-4.638637477061831
s((I1
I0
I1
I1
I1
I1
I0
I0
tI1
tp1363
F-4.8811737286781156
s((I1
I0
I0
I1
I0
I1
I0
I3
tI1
tp1364
I-100
s((I1
I2
I1
I0
I1
I3
I1
I1
tI2
tp1365
I-100
s((I0
I3
I1
I0
I0
I0
I0
I1
tI3
tp1366
I-100
s((I1
I1
I1
I1
I0
I0
I0
I0
tI3
tp1367
F-11.085507100000001
s((I0
I0
I3
I1
I0
I1
I1
I1
tI5
tp1368
I-100
s((I1
I0
I1
I3
I1
I0
I1
I1
tI5
tp1369
F-100.21575902450257
s((I2
I0
I0
I0
I0
I1
I1
I3
tI1
tp1370
I-100
s((I1
I0
I0
I1
I0
I1
I3
I0
tI4
tp1371
I-100
s((I1
I0
I0
I1
I2
I0
I3
I1
tI1
tp1372
I-100
s((I0
I0
I0
I1
I1
I0
I0
I0
tI2
tp1373
F-11.244330025405405
s((I1
I0
I3
I1
I0
I0
I0
I1
tI5
tp1374
I-100
s((I1
I0
I3
I1
I1
I1
I0
I0
tI3
tp1375
F-4.7832477173077379
s((I1
I2
I1
I1
I1
I1
I0
I0
tI7
tp1376
I-1
s((I1
I0
I1
I1
I1
I1
I0
I1
tI5
tp1377
F-3.1841981523355449
s((I1
I0
I1
I1
I3
I1
I0
I1
tI4
tp1378
F-100.11986068572099
s((I2
I1
I0
I0
I0
I1
I0
I1
tI4
tp1379
I-1
s((I1
I0
I1
I3
I0
I0
I1
I0
tI7
tp1380
I-100
s((I0
I1
I0
I0
I0
I1
I0
I1
tI0
tp1381
F-11.15948444826061
s((I0
I3
I0
I0
I0
I1
I0
I0
tI4
tp1382
I-100
s((I1
I0
I2
I3
I0
I1
I1
I0
tI3
tp1383
I-1
s((I1
I1
I3
I1
I0
I0
I0
I0
tI0
tp1384
I-100
s((I1
I3
I0
I1
I0
I1
I1
I0
tI0
tp1385
I-100
s((I0
I1
I1
I0
I0
I1
I1
I1
tI0
tp1386
F-11.354764216462833
s((I0
I3
I1
I0
I0
I0
I1
I1
tI2
tp1387
I-100
s((I1
I0
I2
I3
I1
I1
I0
I0
tI3
tp1388
I-1
s((I1
I0
I0
I1
I0
I1
I2
I1
tI2
tp1389
I50
s((I1
I0
I0
I0
I1
I1
I0
I3
tI2
tp1390
I-100
s((I0
I0
I0
I0
I1
I1
I0
I0
tI5
tp1391
F-2.3779755997446936
s((I0
I1
I0
I0
I0
I3
I1
I1
tI1
tp1392
I-100
s((I0
I0
I1
I1
I0
I1
I1
I0
tI2
tp1393
F-2.7046575922933687
s((I1
I0
I3
I1
I1
I1
I0
I0
tI0
tp1394
I-100
s((I1
I1
I3
I1
I0
I0
I0
I1
tI3
tp1395
I-100
s((I0
I2
I0
I0
I1
I3
I1
I1
tI1
tp1396
I-100
s((I1
I0
I0
I1
I1
I1
I0
I0
tI4
tp1397
F-1.5266786553910001
s((I1
I1
I1
I3
I0
I1
I1
I1
tI2
tp1398
I-100
s((I3
I1
I1
I0
I0
I0
I1
I0
tI6
tp1399
I-100
s((I1
I0
I2
I3
I1
I1
I1
I1
tI1
tp1400
I-100
s((I0
I1
I1
I0
I0
I1
I3
I1
tI6
tp1401
I-100
s((I0
I3
I0
I1
I0
I1
I1
I1
tI6
tp1402
F-100.65016253087508
s((I1
I0
I0
I1
I0
I1
I0
I3
tI6
tp1403
F-5.6212949719108245
s((I1
I0
I3
I1
I1
I1
I0
I0
tI2
tp1404
F-4.9168033044086572
s((I1
I0
I1
I1
I1
I1
I2
I3
tI1
tp1405
I-100
s((I1
I0
I1
I1
I1
I1
I0
I3
tI6
tp1406
F-0.082585364638095959
s((I0
I0
I3
I0
I1
I1
I0
I0
tI1
tp1407
I-100
s((I1
I1
I0
I1
I0
I3
I0
I1
tI4
tp1408
F-4.5329365436202398
s((I0
I0
I1
I1
I0
I1
I0
I3
tI3
tp1409
I-100
s((I1
I0
I3
I1
I0
I0
I0
I1
tI2
tp1410
F-4.638024206312827
s((I1
I3
I0
I0
I1
I0
I1
I1
tI5
tp1411
I-100
s((I0
I0
I1
I0
I0
I0
I1
I1
tI0
tp1412
I-100
s((I2
I1
I0
I0
I0
I1
I0
I1
tI3
tp1413
I-1
s((I1
I0
I2
I1
I1
I1
I3
I1
tI7
tp1414
I-100
s((I0
I0
I3
I0
I0
I1
I0
I0
tI4
tp1415
I-100
s((I1
I0
I1
I0
I1
I3
I1
I1
tI4
tp1416
I-100
s((I1
I1
I0
I0
I0
I0
I3
I1
tI7
tp1417
I-100
s((I1
I1
I0
I1
I1
I1
I1
I1
tI1
tp1418
I-1
s((I0
I1
I1
I0
I1
I0
I0
I3
tI4
tp1419
I-100
s((I0
I3
I1
I1
I1
I1
I0
I1
tI0
tp1420
I-100
s((I1
I1
I3
I0
I0
I1
I1
I1
tI6
tp1421
I-100
s((I1
I1
I0
I1
I0
I2
I0
I1
tI5
tp1422
I-100
s((I0
I0
I0
I0
I1
I1
I0
I3
tI3
tp1423
I-100
s((I1
I1
I1
I1
I0
I1
I3
I1
tI0
tp1424
F-100.15304592658443
s((I1
I0
I3
I1
I1
I1
I0
I0
tI7
tp1425
I-100
s((I2
I1
I0
I0
I0
I0
I1
I3
tI2
tp1426
I-100
s((I0
I1
I0
I0
I0
I0
I1
I0
tI7
tp1427
I-100
s((I1
I1
I1
I3
I0
I1
I1
I1
tI5
tp1428
I-100
s((I0
I2
I1
I0
I3
I0
I1
I1
tI3
tp1429
I-100
s((I0
I1
I1
I0
I1
I3
I0
I0
tI7
tp1430
F-4.7632900234040845
s((I1
I2
I1
I1
I0
I1
I3
I1
tI4
tp1431
I-100
s((I0
I2
I0
I1
I1
I0
I0
I1
tI0
tp1432
I-1
s((I0
I1
I0
I0
I3
I0
I1
I0
tI1
tp1433
F-4.8214219230603055
s((I0
I0
I3
I1
I1
I0
I0
I0
tI2
tp1434
F-3.5866354601197008
s((I0
I3
I1
I0
I1
I1
I1
I1
tI3
tp1435
F-101.07278452260857
s((I1
I0
I0
I0
I3
I1
I1
I0
tI7
tp1436
I-100
s((I3
I1
I1
I0
I1
I0
I0
I0
tI7
tp1437
I-100
s((I1
I1
I1
I0
I1
I1
I2
I1
tI2
tp1438
I50
s((I0
I3
I1
I0
I1
I0
I0
I1
tI7
tp1439
I-100
s((I0
I0
I1
I1
I0
I1
I0
I3
tI4
tp1440
I-100
s((I0
I0
I1
I1
I0
I0
I2
I1
tI4
tp1441
I-1
s((I0
I0
I1
I1
I1
I1
I0
I1
tI7
tp1442
F-10.9
s((I1
I1
I1
I3
I0
I1
I0
I0
tI7
tp1443
I-100
s((I1
I0
I0
I1
I3
I1
I1
I0
tI2
tp1444
I-100
s((I1
I0
I1
I1
I0
I1
I3
I1
tI5
tp1445
I-100
s((I3
I1
I0
I0
I2
I0
I0
I0
tI1
tp1446
I-1
s((I1
I1
I1
I1
I0
I0
I0
I3
tI0
tp1447
I-100
s((I3
I0
I1
I1
I0
I1
I1
I0
tI2
tp1448
I-100
s((I1
I1
I0
I2
I0
I1
I1
I1
tI4
tp1449
I-1
s((I0
I1
I1
I0
I0
I0
I1
I0
tI3
tp1450
F-1.5899284806650207
s((I1
I0
I1
I0
I1
I0
I1
I1
tI5
tp1451
F-11.971717262169681
s((I0
I2
I1
I0
I0
I3
I0
I1
tI2
tp1452
I-100
s((I1
I0
I0
I1
I3
I0
I0
I1
tI0
tp1453
I-100
s((I2
I0
I1
I0
I0
I0
I0
I1
tI2
tp1454
I-1
s((I0
I0
I0
I0
I0
I1
I1
I3
tI3
tp1455
I-100
s((I0
I3
I1
I1
I0
I0
I2
I1
tI2
tp1456
I50
s((I3
I1
I0
I0
I2
I0
I1
I1
tI3
tp1457
I-100
s((I0
I0
I0
I1
I1
I3
I0
I1
tI6
tp1458
F-4.8047575030730751
s((I0
I0
I0
I2
I0
I1
I0
I0
tI5
tp1459
I-1
s((I1
I2
I0
I0
I1
I0
I1
I1
tI5
tp1460
I-1
s((I2
I0
I0
I1
I0
I1
I1
I1
tI3
tp1461
I-1
s((I3
I0
I1
I1
I0
I0
I0
I1
tI4
tp1462
F-3.9992606280693228
s((I1
I1
I1
I0
I0
I2
I1
I3
tI6
tp1463
I-100
s((I0
I3
I1
I1
I0
I1
I1
I0
tI6
tp1464
I-100
s((I1
I0
I0
I1
I1
I1
I0
I3
tI1
tp1465
I-100
s((I1
I3
I1
I1
I1
I1
I0
I0
tI0
tp1466
I-100
s((I1
I1
I1
I0
I0
I1
I0
I0
tI2
tp1467
F-3.5159807534487806
s((I1
I3
I1
I1
I1
I1
I2
I1
tI5
tp1468
I-100
s((I0
I0
I3
I1
I1
I0
I0
I0
tI5
tp1469
I-100
s((I0
I3
I1
I1
I0
I1
I0
I0
tI7
tp1470
I-100
s((I3
I1
I1
I0
I2
I1
I1
I1
tI6
tp1471
I-100
s((I3
I1
I1
I0
I1
I0
I0
I0
tI0
tp1472
I-100
s((I1
I0
I0
I1
I3
I1
I0
I1
tI3
tp1473
F-100.17512779655068
s((I1
I1
I1
I0
I0
I3
I1
I2
tI0
tp1474
I-100
s((I3
I0
I2
I0
I1
I1
I0
I0
tI4
tp1475
I-100
s((I1
I1
I0
I1
I0
I3
I0
I2
tI1
tp1476
I-100
s((I1
I1
I1
I0
I3
I1
I1
I1
tI0
tp1477
F-5.1219580671738116
s((I2
I0
I3
I1
I1
I0
I0
I1
tI2
tp1478
I-1
s((I1
I1
I0
I3
I0
I0
I0
I1
tI5
tp1479
F-4.5749214367931375
s((I3
I0
I1
I1
I0
I1
I1
I0
tI5
tp1480
I-100
s((I0
I3
I0
I1
I1
I0
I0
I0
tI2
tp1481
F-4.2769690630739605
s((I1
I2
I1
I1
I1
I1
I3
I1
tI5
tp1482
I-100
s((I0
I1
I1
I0
I0
I1
I0
I1
tI1
tp1483
F-1.5630661195767102
s((I1
I1
I0
I0
I3
I0
I0
I1
tI1
tp1484
F-4.4759593788937355
s((I0
I3
I0
I1
I1
I0
I0
I0
tI1
tp1485
F-4.3250644131328837
s((I1
I1
I1
I2
I3
I1
I1
I1
tI2
tp1486
I-100
s((I2
I0
I0
I0
I3
I1
I1
I0
tI6
tp1487
I-100
s((I1
I0
I0
I1
I1
I1
I3
I0
tI3
tp1488
I-100
s((I0
I3
I2
I1
I0
I1
I1
I1
tI2
tp1489
I-100
s((I0
I1
I0
I0
I0
I3
I1
I0
tI1
tp1490
I-100
s((I0
I0
I1
I0
I2
I3
I1
I1
tI0
tp1491
I-100
s((I1
I1
I0
I1
I2
I3
I0
I0
tI3
tp1492
I-1
s((I0
I3
I0
I1
I1
I0
I0
I1
tI5
tp1493
I-100
s((I0
I0
I1
I0
I0
I0
I0
I1
tI3
tp1494
F-2.0326642566059658
s((I1
I1
I1
I0
I0
I0
I1
I3
tI2
tp1495
I-100
s((I1
I1
I1
I0
I0
I1
I1
I1
tI2
tp1496
F-2.88647350724642
s((I1
I3
I1
I0
I0
I0
I1
I2
tI1
tp1497
I-1
s((I1
I1
I1
I1
I3
I0
I0
I0
tI4
tp1498
I-100
s((I1
I1
I1
I0
I0
I3
I1
I1
tI2
tp1499
I-100
s((I0
I1
I3
I0
I0
I0
I2
I0
tI2
tp1500
F49.314687485328079
s((I0
I1
I0
I0
I3
I0
I1
I1
tI4
tp1501
I-100
s((I0
I0
I3
I1
I1
I0
I0
I1
tI3
tp1502
I-100
s((I0
I2
I1
I1
I0
I1
I3
I0
tI6
tp1503
F49.618321576017742
s((I1
I2
I0
I0
I1
I1
I0
I3
tI2
tp1504
I-100
s((I1
I0
I0
I2
I3
I1
I1
I0
tI0
tp1505
I50
s((I0
I1
I1
I0
I1
I2
I0
I0
tI3
tp1506
I-1
s((I3
I1
I0
I0
I0
I1
I1
I1
tI5
tp1507
F-2.9036099055230769
s((I1
I3
I1
I0
I1
I2
I0
I1
tI3
tp1508
I-100
s((I1
I1
I0
I0
I3
I1
I1
I1
tI3
tp1509
I-100
s((I1
I1
I0
I0
I0
I2
I0
I1
tI2
tp1510
I-1
s((I0
I0
I1
I0
I3
I0
I0
I1
tI0
tp1511
F-5.4171953614266917
s((I1
I3
I1
I1
I1
I0
I0
I1
tI5
tp1512
I-100
s((I2
I0
I0
I0
I1
I3
I1
I1
tI6
tp1513
I-1
s((I3
I0
I1
I0
I1
I0
I0
I1
tI6
tp1514
I-100
s((I0
I1
I1
I0
I1
I1
I3
I1
tI7
tp1515
I-1
s((I3
I0
I1
I1
I0
I1
I2
I0
tI4
tp1516
I-1
s((I0
I1
I3
I0
I0
I0
I1
I0
tI7
tp1517
F-4.5397111964887156
s((I0
I0
I0
I0
I3
I1
I1
I2
tI0
tp1518
I-1
s((I1
I1
I1
I1
I0
I1
I0
I1
tI6
tp1519
F-18.747277554694854
s((I1
I0
I1
I1
I1
I3
I0
I1
tI4
tp1520
I-100
s((I1
I1
I1
I1
I3
I1
I0
I1
tI1
tp1521
F-101.15165570556903
s((I1
I3
I1
I1
I0
I1
I2
I0
tI4
tp1522
I-100
s((I1
I1
I1
I0
I0
I1
I0
I3
tI4
tp1523
I-100
s((I1
I1
I1
I0
I0
I0
I1
I3
tI5
tp1524
I-100
s((I1
I1
I0
I3
I0
I0
I0
I1
tI6
tp1525
I-100
s((I3
I0
I1
I1
I0
I1
I0
I2
tI6
tp1526
I-100
s((I1
I1
I1
I1
I3
I0
I0
I0
tI3
tp1527
I-100
s((I1
I0
I0
I3
I1
I0
I1
I1
tI6
tp1528
I-100
s((I0
I0
I1
I3
I0
I0
I1
I1
tI7
tp1529
I-100
s((I2
I0
I1
I0
I0
I3
I0
I1
tI5
tp1530
I-100
s((I0
I1
I3
I0
I0
I1
I0
I1
tI3
tp1531
I-100
s((I0
I0
I1
I0
I0
I3
I0
I1
tI1
tp1532
I-100
s((I1
I0
I1
I1
I1
I1
I3
I0
tI6
tp1533
F-4.0897295312706774
s((I1
I1
I1
I0
I0
I0
I3
I1
tI7
tp1534
F-100.14036030981681
s((I0
I0
I1
I0
I0
I2
I1
I1
tI5
tp1535
I-1
s((I1
I0
I2
I0
I1
I1
I1
I1
tI5
tp1536
F49.884066203926096
s((I1
I1
I0
I3
I0
I1
I1
I1
tI7
tp1537
I-100
s((I0
I1
I1
I0
I0
I1
I1
I1
tI1
tp1538
F-2.6213994769391382
s((I0
I1
I1
I0
I0
I0
I1
I3
tI7
tp1539
F-4.1041841183832384
s((I1
I1
I1
I0
I0
I0
I0
I3
tI7
tp1540
I-100
s((I0
I0
I0
I1
I1
I0
I2
I0
tI0
tp1541
I-1
s((I0
I0
I0
I1
I1
I3
I0
I0
tI0
tp1542
I-100
s((I0
I0
I0
I0
I3
I1
I1
I2
tI7
tp1543
I-1
s((I1
I0
I1
I0
I0
I0
I1
I0
tI4
tp1544
F-1.5926848598431416
s((I1
I3
I0
I1
I0
I0
I0
I1
tI2
tp1545
I-1
s((I1
I2
I3
I1
I1
I1
I0
I0
tI7
tp1546
I-100
s((I1
I1
I1
I3
I0
I0
I0
I0
tI4
tp1547
F-4.3670988542505516
s((I3
I0
I0
I0
I0
I1
I0
I0
tI3
tp1548
F-10
s((I0
I0
I1
I0
I3
I0
I1
I1
tI2
tp1549
I-100
s((I3
I1
I0
I0
I2
I1
I0
I1
tI3
tp1550
I-100
s((I1
I0
I0
I1
I0
I3
I0
I1
tI4
tp1551
F-4.4776321961788179
s((I0
I0
I1
I3
I0
I0
I1
I1
tI0
tp1552
I-100
s((I0
I2
I0
I1
I1
I3
I0
I0
tI7
tp1553
I-1
s((I2
I3
I1
I0
I1
I1
I1
I1
tI6
tp1554
I-100
s((I1
I3
I1
I1
I0
I1
I1
I1
tI0
tp1555
F-100.15408437412314
s((I1
I2
I1
I1
I0
I1
I3
I0
tI0
tp1556
I-100
s((I3
I0
I0
I1
I1
I0
I0
I0
tI6
tp1557
I-100
s((I0
I1
I0
I0
I3
I2
I1
I1
tI0
tp1558
I-1
s((I0
I0
I3
I1
I1
I2
I0
I1
tI3
tp1559
I-100
s((I1
I0
I3
I0
I0
I1
I1
I0
tI1
tp1560
I-100
s((I0
I1
I1
I3
I0
I0
I1
I2
tI3
tp1561
F49.665332795484005
s((I1
I1
I1
I1
I0
I0
I0
I2
tI5
tp1562
I-1
s((I0
I1
I0
I0
I0
I0
I1
I1
tI3
tp1563
F-2.9447723972346074
s((I1
I3
I1
I1
I0
I1
I0
I0
tI2
tp1564
F0.628382379647344
s((I1
I0
I0
I1
I1
I1
I3
I1
tI3
tp1565
I-100
s((I1
I0
I0
I0
I1
I0
I1
I1
tI0
tp1566
F-1.5104471672903599
s((I1
I1
I1
I0
I2
I0
I1
I1
tI4
tp1567
F49.88127449129
s((I1
I0
I3
I1
I1
I1
I0
I1
tI4
tp1568
I-100
s((I0
I0
I1
I1
I2
I1
I1
I0
tI2
tp1569
I-1
s((I1
I2
I1
I3
I0
I0
I1
I0
tI3
tp1570
I-1
s((I1
I3
I1
I1
I0
I1
I0
I1
tI0
tp1571
I-100
s((I1
I0
I1
I1
I1
I0
I0
I1
tI4
tp1572
F-4.2991006639203313
s((I1
I0
I1
I0
I0
I0
I1
I0
tI3
tp1573
F-1.8563692597553856
s((I1
I0
I1
I1
I1
I3
I0
I1
tI2
tp1574
I-100
s((I1
I0
I0
I2
I1
I1
I0
I3
tI4
tp1575
I-100
s((I3
I1
I2
I0
I0
I1
I1
I1
tI2
tp1576
I-100
s((I3
I1
I0
I0
I2
I1
I0
I1
tI4
tp1577
F41
s((I0
I3
I0
I1
I2
I1
I1
I1
tI7
tp1578
I-100
s((I3
I0
I1
I1
I2
I0
I0
I1
tI2
tp1579
I-1
s((I3
I1
I0
I0
I0
I0
I0
I2
tI5
tp1580
I-1
s((I1
I0
I1
I1
I0
I1
I1
I1
tI1
tp1581
F-11.600233429001136
s((I1
I1
I1
I3
I0
I0
I1
I1
tI4
tp1582
F-4.2011189220083329
s((I0
I0
I3
I1
I1
I2
I0
I1
tI4
tp1583
I-100
s((I2
I1
I0
I0
I0
I1
I3
I1
tI0
tp1584
I-100
s((I1
I1
I1
I1
I0
I0
I0
I2
tI2
tp1585
I-1
s((I0
I1
I0
I3
I0
I0
I1
I0
tI4
tp1586
F-4.0431220448397784
s((I1
I1
I1
I0
I0
I1
I0
I3
tI2
tp1587
I-100
s((I0
I1
I1
I0
I1
I0
I0
I0
tI2
tp1588
F-2.1357080927371159
s((I0
I1
I1
I2
I3
I1
I1
I1
tI3
tp1589
I-100
s((I0
I0
I1
I0
I3
I2
I0
I1
tI6
tp1590
I-100
s((I1
I0
I0
I0
I1
I1
I1
I1
tI3
tp1591
F-2.0489451606132887
s((I3
I0
I1
I1
I1
I1
I2
I1
tI7
tp1592
I-100
s((I1
I3
I1
I1
I0
I1
I0
I0
tI5
tp1593
I-100
s((I3
I0
I1
I0
I1
I1
I1
I1
tI5
tp1594
F-100.72949974451869
s((I1
I1
I3
I1
I0
I0
I0
I2
tI6
tp1595
I-100
s((I1
I1
I1
I1
I0
I3
I0
I0
tI0
tp1596
I-100
s((I1
I1
I0
I1
I0
I0
I0
I0
tI0
tp1597
F-2.6513161679372539
s((I1
I1
I2
I0
I0
I0
I0
I1
tI3
tp1598
I-1
s((I1
I0
I3
I0
I1
I1
I0
I0
tI7
tp1599
I-100
s((I1
I0
I0
I1
I0
I1
I0
I0
tI6
tp1600
F-11.071000000000002
s((I3
I0
I1
I0
I0
I0
I1
I1
tI5
tp1601
I-100
s((I0
I1
I3
I0
I0
I1
I1
I1
tI1
tp1602
I-100
s((I0
I1
I0
I0
I0
I0
I0
I0
tI4
tp1603
F-1.7504085682031532
s((I1
I3
I1
I1
I1
I1
I0
I1
tI7
tp1604
I-100
s((I0
I1
I1
I0
I1
I1
I0
I1
tI2
tp1605
F-11.292543152018204
s((I0
I3
I0
I0
I0
I1
I2
I0
tI1
tp1606
I-100
s((I0
I1
I1
I0
I3
I1
I0
I1
tI7
tp1607
I-1
s((I1
I0
I1
I1
I0
I1
I3
I0
tI4
tp1608
I-100
s((I0
I0
I1
I0
I0
I3
I0
I1
tI6
tp1609
F-4.228944861702356
s((I1
I0
I0
I1
I0
I1
I0
I1
tI0
tp1610
F-10.225494361000001
s((I0
I1
I1
I3
I2
I0
I1
I0
tI0
tp1611
I-100
s((I0
I1
I1
I2
I1
I0
I0
I3
tI2
tp1612
I-100
s((I0
I1
I0
I0
I3
I0
I1
I0
tI7
tp1613
F-4.8119347784529207
s((I0
I0
I1
I1
I0
I1
I3
I0
tI0
tp1614
I-100
s((I3
I0
I0
I1
I0
I1
I1
I1
tI7
tp1615
I-100
s((I1
I1
I1
I0
I0
I3
I1
I1
tI7
tp1616
I-100
s((I0
I1
I1
I2
I3
I1
I1
I1
tI4
tp1617
I-100
s((I1
I0
I1
I1
I0
I1
I0
I3
tI6
tp1618
F-5.2424936143460767
s((I1
I1
I1
I0
I1
I1
I2
I3
tI4
tp1619
I-100
s((I0
I0
I0
I2
I0
I1
I1
I3
tI7
tp1620
I-1
s((I0
I0
I0
I0
I0
I1
I0
I0
tI3
tp1621
F-4.7804615976480793
s((I0
I0
I1
I1
I0
I1
I1
I3
tI1
tp1622
I-100
s((I1
I1
I2
I1
I0
I3
I0
I0
tI4
tp1623
I-1
s((I0
I0
I1
I1
I0
I1
I2
I0
tI1
tp1624
I-1
s((I1
I1
I0
I1
I0
I0
I0
I0
tI7
tp1625
F-2.657121277964495
s((I1
I0
I3
I2
I0
I1
I1
I1
tI3
tp1626
I-100
s((I1
I0
I3
I0
I1
I1
I0
I0
tI0
tp1627
F-4.9498331526537811
s((I1
I0
I3
I1
I0
I1
I0
I1
tI6
tp1628
I-100
s((I0
I0
I3
I0
I0
I1
I0
I2
tI3
tp1629
F32.731371355624624
s((I3
I0
I0
I0
I0
I1
I0
I0
tI5
tp1630
F-10
s((I1
I0
I0
I1
I1
I1
I0
I1
tI6
tp1631
F-10.995120261133218
s((I3
I1
I1
I0
I1
I0
I0
I0
tI5
tp1632
I-100
s((I1
I0
I3
I1
I0
I1
I0
I0
tI4
tp1633
I-100
s((I0
I3
I1
I1
I0
I1
I1
I0
tI0
tp1634
I-100
s((I0
I3
I1
I0
I1
I0
I0
I1
tI1
tp1635
F-5.4828303937140754
s((I1
I0
I1
I0
I1
I3
I1
I1
tI1
tp1636
I-100
s((I1
I0
I0
I3
I1
I1
I1
I1
tI2
tp1637
I-100
s((I1
I1
I1
I2
I3
I1
I1
I1
tI0
tp1638
F49.089113370655035
s((I0
I3
I1
I1
I0
I1
I0
I2
tI1
tp1639
I-100
s((I1
I0
I2
I1
I0
I1
I0
I3
tI6
tp1640
I-1
s((I1
I0
I0
I0
I0
I1
I1
I1
tI3
tp1641
F-4.4122300194415756
s((I0
I1
I0
I0
I0
I0
I3
I0
tI5
tp1642
F-4.2560017638140692
s((I1
I0
I0
I1
I0
I0
I0
I1
tI5
tp1643
I-100
s((I1
I1
I1
I0
I0
I3
I1
I0
tI2
tp1644
I-100
s((I1
I1
I0
I0
I0
I0
I0
I1
tI5
tp1645
F-11.538386859515697
s((I3
I0
I1
I0
I1
I1
I1
I1
tI7
tp1646
F-100.50719723184059
s((I0
I3
I1
I1
I0
I0
I0
I1
tI2
tp1647
F-3.5227305397579611
s((I1
I1
I1
I3
I0
I0
I1
I0
tI4
tp1648
F-4.7441835396832479
s((I1
I1
I1
I0
I3
I0
I1
I1
tI2
tp1649
I-100
s((I1
I1
I3
I1
I2
I0
I0
I1
tI6
tp1650
I-100
s((I1
I1
I1
I2
I0
I1
I0
I0
tI1
tp1651
I-1
s((I1
I1
I1
I0
I1
I1
I0
I1
tI3
tp1652
F-19.223677631499079
s((I0
I0
I0
I0
I1
I1
I3
I0
tI5
tp1653
F-4.880983930022607
s((I0
I0
I0
I0
I0
I1
I1
I0
tI6
tp1654
F-2.2132885315182955
s((I1
I1
I0
I1
I2
I3
I0
I1
tI2
tp1655
I-100
s((I1
I1
I1
I0
I1
I1
I0
I0
tI7
tp1656
F-2.9034772243826281
s((I1
I0
I0
I1
I0
I1
I1
I0
tI5
tp1657
F-11.357413504148923
s((I3
I0
I2
I1
I0
I1
I1
I1
tI4
tp1658
I-1
s((I3
I1
I0
I0
I0
I1
I0
I1
tI7
tp1659
I-100
s((I3
I0
I1
I1
I2
I0
I0
I1
tI0
tp1660
I-100
s((I0
I0
I2
I0
I1
I1
I0
I3
tI0
tp1661
I-1
s((I1
I0
I1
I0
I1
I0
I0
I1
tI6
tp1662
I-100
s((I0
I0
I0
I0
I1
I0
I1
I1
tI4
tp1663
F-1.9938412528614256
s((I0
I0
I0
I0
I3
I1
I1
I0
tI3
tp1664
I-100
s((I1
I0
I0
I1
I1
I1
I0
I1
tI1
tp1665
F-3.8964631276187558
s((I3
I1
I0
I0
I0
I0
I1
I0
tI7
tp1666
I-100
s((I1
I2
I1
I0
I1
I3
I1
I1
tI4
tp1667
I-100
s((I1
I3
I1
I0
I0
I0
I1
I0
tI7
tp1668
I-100
s((I1
I0
I0
I3
I1
I1
I0
I0
tI1
tp1669
I-100
s((I1
I0
I1
I1
I2
I1
I0
I3
tI6
tp1670
I-1
s((I3
I0
I0
I0
I0
I1
I1
I0
tI6
tp1671
I-100
s((I0
I1
I1
I0
I0
I0
I1
I0
tI1
tp1672
F-10.990000000000002
s((I3
I0
I1
I1
I2
I1
I0
I0
tI0
tp1673
I-100
s((I1
I1
I1
I0
I1
I1
I0
I3
tI0
tp1674
F-4.3846118306687201
s((I2
I1
I3
I0
I0
I0
I0
I0
tI3
tp1675
I-1
s((I1
I0
I1
I1
I0
I1
I0
I0
tI3
tp1676
F-11.640438624967057
s((I1
I1
I0
I1
I0
I3
I0
I0
tI4
tp1677
F-10.012366097108668
s((I3
I1
I0
I0
I0
I0
I1
I0
tI4
tp1678
F-4.5348373399715145
s((I1
I0
I0
I0
I0
I1
I1
I0
tI3
tp1679
F-11.031595936396068
s((I1
I1
I1
I3
I1
I1
I0
I1
tI1
tp1680
I-100
s((I0
I0
I1
I1
I3
I0
I0
I1
tI0
tp1681
I-100
s((I3
I0
I2
I1
I0
I1
I1
I1
tI3
tp1682
I-100
s((I0
I0
I2
I1
I1
I3
I0
I0
tI2
tp1683
I-100
s((I0
I2
I0
I1
I1
I0
I0
I3
tI3
tp1684
I-100
s((I1
I1
I1
I0
I1
I1
I3
I0
tI2
tp1685
I-100
s((I0
I0
I0
I0
I1
I0
I1
I1
tI3
tp1686
F-1.9957781015208114
s((I3
I1
I1
I0
I1
I0
I0
I2
tI4
tp1687
I-100
s((I1
I1
I1
I0
I1
I1
I3
I1
tI5
tp1688
F-101.46547650271198
s((I2
I1
I3
I0
I0
I0
I0
I0
tI1
tp1689
I-1
s((I0
I1
I1
I2
I1
I3
I0
I0
tI6
tp1690
I-100
s((I1
I0
I1
I1
I3
I1
I1
I1
tI4
tp1691
F-100.22583500290007
s((I1
I1
I1
I3
I0
I1
I1
I0
tI7
tp1692
I-100
s((I0
I0
I1
I1
I0
I3
I0
I1
tI0
tp1693
I-100
s((I0
I3
I1
I1
I0
I1
I2
I0
tI2
tp1694
I50
s((I3
I0
I0
I0
I0
I1
I1
I0
tI1
tp1695
I-100
s((I1
I0
I0
I1
I0
I0
I3
I1
tI4
tp1696
I-100
s((I1
I1
I3
I1
I0
I0
I2
I1
tI5
tp1697
I-100
s((I3
I0
I0
I1
I1
I0
I0
I1
tI5
tp1698
F-4.3945576015023553
s((I1
I1
I1
I3
I1
I1
I0
I0
tI5
tp1699
I-100
s((I3
I0
I1
I1
I0
I1
I0
I0
tI0
tp1700
I-100
s((I3
I1
I2
I0
I0
I1
I0
I1
tI5
tp1701
F49.445477092146881
s((I1
I0
I1
I1
I0
I1
I0
I0
tI4
tp1702
F-11.359871003651909
s((I3
I1
I0
I0
I2
I1
I1
I1
tI0
tp1703
I-100
s((I1
I1
I0
I3
I2
I1
I1
I1
tI6
tp1704
I-100
s((I0
I0
I3
I1
I1
I0
I2
I0
tI5
tp1705
I-100
s((I3
I0
I0
I1
I1
I0
I0
I2
tI5
tp1706
I-1
s((I0
I1
I1
I2
I0
I0
I1
I0
tI1
tp1707
I-100
s((I0
I0
I1
I0
I0
I3
I1
I1
tI5
tp1708
I-100
s((I2
I1
I1
I0
I0
I1
I3
I1
tI1
tp1709
I-100
s((I0
I0
I1
I2
I0
I0
I1
I1
tI1
tp1710
I-100
s((I1
I1
I0
I1
I0
I0
I0
I1
tI5
tp1711
F-1.4397350671536879
s((I1
I1
I0
I0
I0
I1
I1
I1
tI3
tp1712
F-4.1390150032776036
s((I1
I1
I1
I1
I3
I1
I0
I1
tI4
tp1713
F-100.23418939623241
s((I0
I0
I3
I1
I1
I0
I2
I1
tI1
tp1714
I-1
s((I0
I2
I1
I1
I0
I1
I1
I0
tI4
tp1715
I-1
s((I1
I2
I1
I1
I1
I0
I0
I1
tI2
tp1716
I-1
s((I1
I1
I1
I3
I1
I1
I0
I0
tI3
tp1717
F-0.62470105683498112
s((I1
I2
I1
I0
I0
I0
I1
I3
tI5
tp1718
I-100
s((I3
I1
I1
I0
I0
I1
I1
I1
tI6
tp1719
I-100
s((I2
I0
I1
I1
I1
I1
I3
I1
tI6
tp1720
I-1
s((I0
I1
I0
I0
I3
I1
I1
I1
tI0
tp1721
F-4.7459161921380995
s((I1
I0
I1
I1
I1
I3
I0
I1
tI1
tp1722
I-100
s((I1
I1
I1
I0
I3
I0
I0
I1
tI2
tp1723
I-100
s((I1
I1
I1
I0
I0
I1
I2
I3
tI1
tp1724
I-100
s((I1
I0
I0
I1
I2
I0
I0
I1
tI7
tp1725
I-1
s((I1
I0
I1
I1
I1
I1
I3
I1
tI5
tp1726
I-100
s((I1
I2
I1
I1
I0
I1
I0
I1
tI2
tp1727
I-100
s((I1
I1
I1
I2
I0
I0
I1
I3
tI2
tp1728
I-100
s((I1
I0
I1
I0
I1
I3
I1
I1
tI0
tp1729
I-100
s((I0
I0
I0
I1
I0
I1
I1
I1
tI6
tp1730
F-19.550708994701591
s((I1
I3
I1
I1
I1
I1
I2
I0
tI7
tp1731
I-100
s((I1
I1
I1
I0
I3
I2
I1
I1
tI6
tp1732
I-100
s((I1
I1
I1
I0
I0
I0
I1
I1
tI1
tp1733
F-10.762157844052242
s((I0
I1
I0
I0
I0
I1
I1
I1
tI7
tp1734
F-11.334324402770276
s((I1
I1
I1
I3
I1
I1
I0
I0
tI4
tp1735
I-100
s((I1
I1
I0
I1
I2
I3
I0
I0
tI4
tp1736
F40.968866789077524
s((I1
I0
I1
I1
I0
I1
I0
I1
tI4
tp1737
F-2.710323219563981
s((I3
I1
I2
I0
I0
I0
I0
I0
tI6
tp1738
I-100
s((I0
I0
I0
I1
I1
I0
I0
I1
tI4
tp1739
F-2.055484758581954
s((I0
I0
I0
I1
I3
I1
I1
I1
tI3
tp1740
I-100
s((I1
I2
I0
I1
I1
I1
I0
I3
tI1
tp1741
I-100
s((I1
I0
I3
I0
I1
I2
I1
I1
tI6
tp1742
I-100
s((I1
I1
I1
I3
I0
I2
I1
I0
tI1
tp1743
I-100
s((I0
I0
I0
I1
I1
I0
I0
I3
tI4
tp1744
I-100
s((I1
I1
I1
I0
I0
I0
I0
I0
tI7
tp1745
F-3.4511058886905999
s((I1
I1
I1
I2
I0
I0
I3
I1
tI6
tp1746
I-100
s((I3
I1
I0
I0
I0
I2
I0
I0
tI0
tp1747
I-100
s((I0
I2
I0
I0
I1
I1
I3
I0
tI1
tp1748
I-100
s((I0
I0
I3
I2
I1
I0
I1
I1
tI0
tp1749
F32.878506822891332
s((I1
I0
I0
I3
I0
I1
I1
I1
tI3
tp1750
I-100
s((I1
I3
I0
I1
I0
I1
I1
I0
tI1
tp1751
I-100
s((I1
I1
I1
I0
I0
I0
I0
I1
tI7
tp1752
F-10
s((I1
I0
I0
I0
I0
I1
I1
I3
tI5
tp1753
F-4.5673762529614663
s((I1
I0
I1
I3
I1
I0
I0
I1
tI5
tp1754
F-100.46015778259419
s((I3
I1
I1
I0
I1
I1
I0
I1
tI5
tp1755
I-100
s((I3
I1
I1
I0
I0
I1
I0
I1
tI7
tp1756
I-100
s((I1
I0
I0
I1
I0
I1
I1
I3
tI2
tp1757
I-100
s((I0
I0
I1
I1
I0
I0
I0
I1
tI4
tp1758
F-10.9
s((I0
I1
I3
I0
I0
I0
I0
I0
tI7
tp1759
F-4.8656412787111005
s((I0
I0
I0
I0
I1
I3
I1
I1
tI1
tp1760
I-100
s((I1
I1
I3
I0
I0
I0
I0
I1
tI4
tp1761
I-100
s((I0
I0
I1
I1
I0
I1
I0
I0
tI2
tp1762
F-2.4815349685461983
s((I0
I0
I0
I1
I1
I0
I0
I1
tI3
tp1763
F-2.3744482260472548
s((I1
I3
I1
I0
I1
I0
I2
I1
tI2
tp1764
F40.945874203071241
s((I2
I1
I1
I0
I3
I1
I1
I1
tI6
tp1765
I-100
s((I2
I1
I0
I0
I0
I0
I3
I0
tI5
tp1766
I-1
s((I0
I0
I0
I0
I0
I1
I1
I0
tI7
tp1767
F-2.2625331569950555
s((I1
I1
I1
I0
I0
I0
I1
I0
tI3
tp1768
F-11.245028419
s((I0
I1
I1
I3
I0
I0
I1
I0
tI3
tp1769
F-4.7440095684243833
s((I0
I3
I1
I0
I0
I0
I0
I1
tI5
tp1770
I-100
s((I1
I0
I1
I0
I0
I0
I1
I3
tI7
tp1771
I-100
s((I1
I0
I1
I3
I1
I0
I1
I1
tI3
tp1772
F-100.21575902450257
s((I0
I1
I1
I0
I0
I3
I1
I0
tI5
tp1773
I-100
s((I1
I1
I1
I0
I0
I1
I1
I0
tI2
tp1774
F-3.6061416364023957
s((I1
I0
I0
I3
I0
I1
I1
I0
tI5
tp1775
F-4.6244476013771987
s((I1
I2
I1
I1
I1
I1
I0
I0
tI1
tp1776
I-1
s((I1
I0
I3
I0
I0
I1
I1
I1
tI5
tp1777
I-100
s((I1
I1
I1
I2
I1
I1
I3
I1
tI6
tp1778
I-100
s((I1
I1
I1
I0
I3
I2
I0
I1
tI0
tp1779
I-1
s((I0
I1
I0
I0
I0
I1
I0
I1
tI6
tp1780
F-2.3788203799813048
s((I0
I1
I1
I0
I1
I0
I3
I0
tI4
tp1781
I-100
s((I0
I3
I1
I1
I2
I1
I1
I0
tI5
tp1782
I-100
s((I1
I0
I0
I1
I0
I1
I1
I3
tI5
tp1783
F-4.234248749805805
s((I0
I0
I3
I0
I1
I0
I1
I1
tI5
tp1784
I-100
s((I0
I0
I1
I0
I1
I0
I0
I1
tI2
tp1785
F-4.8699401959955129
s((I0
I1
I0
I0
I0
I3
I1
I1
tI7
tp1786
F-4.261805607276302
s((I0
I0
I1
I0
I1
I1
I1
I1
tI6
tp1787
F-16.03135413639362
s((I0
I0
I1
I1
I0
I1
I0
I0
tI5
tp1788
F-2.6196278324099449
s((I1
I3
I1
I1
I1
I0
I2
I1
tI1
tp1789
I-1
s((I1
I0
I1
I2
I0
I0
I1
I3
tI3
tp1790
I-100
s((I1
I0
I0
I1
I0
I1
I3
I1
tI7
tp1791
I-100
s((I0
I1
I0
I0
I0
I3
I1
I1
tI0
tp1792
I-100
s((I1
I2
I0
I1
I1
I1
I3
I1
tI6
tp1793
F49.909999999999997
s((I3
I1
I1
I0
I0
I0
I1
I0
tI0
tp1794
I-100
s((I0
I1
I1
I0
I0
I1
I3
I1
tI0
tp1795
I-100
s((I3
I0
I1
I1
I1
I1
I0
I1
tI5
tp1796
I-100
s((I1
I1
I1
I0
I0
I0
I1
I0
tI4
tp1797
F-11.15119
s((I1
I0
I1
I1
I1
I1
I0
I0
tI6
tp1798
F-12.213248090237597
s((I1
I0
I0
I1
I0
I1
I0
I3
tI0
tp1799
I-100
s((I1
I0
I0
I0
I3
I1
I1
I0
tI2
tp1800
I-100
s((I1
I0
I3
I1
I0
I1
I1
I0
tI7
tp1801
I-100
s((I0
I0
I3
I1
I0
I1
I1
I1
tI6
tp1802
I-100
s((I1
I0
I1
I3
I1
I0
I1
I1
tI4
tp1803
F-100.16838407052757
s((I1
I1
I3
I1
I0
I0
I0
I1
tI0
tp1804
I-100
s((I1
I0
I0
I1
I0
I1
I3
I0
tI7
tp1805
I-100
s((I1
I0
I0
I1
I2
I0
I3
I1
tI0
tp1806
I-100
s((I1
I1
I0
I1
I0
I3
I0
I1
tI2
tp1807
I-100
s((I0
I0
I0
I1
I1
I0
I0
I0
tI1
tp1808
F-11.33766207721
s((I1
I0
I3
I1
I0
I0
I0
I1
tI4
tp1809
I-100
s((I1
I1
I1
I2
I0
I0
I1
I0
tI2
tp1810
I-1
s((I1
I0
I1
I1
I1
I1
I0
I1
tI4
tp1811
F-3.2107867832206183
s((I1
I1
I3
I1
I0
I0
I0
I1
tI5
tp1812
I-100
s((I1
I0
I1
I1
I3
I1
I0
I1
tI3
tp1813
F-100.13740107898519
s((I1
I0
I1
I3
I0
I0
I1
I0
tI6
tp1814
I-100
s((I1
I3
I1
I1
I1
I1
I2
I0
tI1
tp1815
I-100
s((I0
I1
I0
I0
I0
I1
I0
I1
tI1
tp1816
F-2.4088829892701802
s((I0
I3
I0
I0
I0
I1
I0
I0
tI3
tp1817
F-10.032466594968144
s((I1
I1
I3
I1
I0
I0
I0
I0
tI3
tp1818
F-10.01788563903729
s((I0
I1
I1
I2
I1
I0
I0
I0
tI5
tp1819
I-1
s((I1
I1
I0
I0
I0
I0
I3
I1
tI1
tp1820
I-100
s((I0
I3
I1
I0
I0
I0
I1
I1
tI1
tp1821
F-5.0970664907682695
s((I2
I0
I1
I3
I0
I0
I1
I1
tI7
tp1822
I-100
s((I0
I0
I0
I0
I1
I1
I0
I0
tI4
tp1823
F-2.330194884713078
s((I1
I1
I1
I2
I3
I0
I0
I1
tI5
tp1824
I-100
s((I0
I0
I1
I1
I0
I1
I1
I0
tI5
tp1825
F-2.5434220072868534
s((I3
I0
I0
I0
I1
I1
I0
I0
tI5
tp1826
F-4.4509637281421659
s((I0
I0
I3
I0
I1
I1
I0
I0
tI0
tp1827
F-4.4952541522522198
s((I0
I2
I0
I0
I1
I3
I1
I1
tI0
tp1828
I-100
s((I1
I1
I1
I3
I2
I0
I0
I1
tI4
tp1829
I50
s((I0
I0
I0
I0
I1
I3
I1
I1
tI7
tp1830
F-2.926643499527199
s((I0
I0
I3
I0
I0
I1
I0
I0
tI5
tp1831
I-100
s((I1
I1
I1
I3
I0
I1
I1
I1
tI3
tp1832
I-100
s((I0
I1
I0
I0
I0
I3
I1
I0
tI4
tp1833
F-4.2022981915228401
s((I1
I1
I1
I1
I0
I0
I0
I0
tI2
tp1834
F-11.492020381443302
s((I0
I1
I1
I0
I0
I1
I3
I1
tI7
tp1835
F-4.6312574824138286
s((I1
I1
I1
I0
I0
I1
I1
I3
tI3
tp1836
I-100
s((I0
I3
I0
I1
I0
I1
I1
I1
tI7
tp1837
F-100.68138282640805
s((I0
I1
I3
I0
I0
I2
I0
I0
tI1
tp1838
I50
s((I0
I0
I3
I0
I1
I1
I2
I0
tI3
tp1839
I-1
s((I1
I1
I2
I1
I3
I0
I0
I1
tI1
tp1840
I-1
s((I1
I0
I0
I2
I0
I1
I1
I3
tI5
tp1841
I-1
s((I1
I0
I1
I1
I1
I1
I0
I3
tI5
tp1842
I-100
s((I1
I1
I0
I1
I0
I3
I0
I1
tI5
tp1843
F1.1716425316632302
s((I1
I1
I0
I1
I2
I3
I0
I0
tI2
tp1844
I-100
s((I1
I3
I0
I0
I1
I0
I1
I1
tI6
tp1845
I-100
s((I1
I1
I0
I3
I0
I0
I0
I1
tI7
tp1846
I-100
s((I0
I0
I1
I0
I0
I0
I1
I1
tI1
tp1847
F-10.981
s((I3
I1
I0
I0
I0
I2
I1
I1
tI3
tp1848
I-100
s((I1
I3
I1
I1
I1
I1
I2
I0
tI6
tp1849
I-100
s((I1
I1
I0
I1
I3
I0
I0
I1
tI7
tp1850
I-100
s((I1
I1
I1
I1
I0
I0
I0
I3
tI6
tp1851
I-100
s((I1
I0
I0
I0
I0
I1
I1
I3
tI2
tp1852
I-100
s((I1
I1
I0
I1
I1
I1
I1
I1
tI6
tp1853
I-1
s((I0
I1
I1
I0
I1
I0
I0
I3
tI7
tp1854
F-1.7982056441363425
s((I0
I3
I1
I1
I1
I1
I0
I1
tI3
tp1855
I-100
s((I1
I0
I3
I1
I0
I1
I0
I0
tI3
tp1856
F-4.6652424052460111
s((I0
I3
I1
I1
I0
I0
I2
I1
tI4
tp1857
I-100
s((I0
I0
I0
I0
I1
I1
I0
I3
tI0
tp1858
F-4.5976408930047903
s((I1
I1
I1
I1
I0
I1
I3
I1
tI1
tp1859
F-100.21705110811521
s((I2
I1
I0
I0
I0
I0
I1
I3
tI3
tp1860
I-100
s((I0
I1
I0
I0
I0
I0
I1
I0
tI6
tp1861
F-1.6952977501487194
s((I1
I0
I1
I1
I1
I0
I0
I1
tI0
tp1862
F-4.2990971466255425
s((I1
I0
I1
I1
I1
I1
I2
I1
tI1
tp1863
I-1
s((I1
I0
I1
I1
I0
I1
I2
I0
tI6
tp1864
I-1
s((I3
I1
I0
I0
I2
I1
I1
I1
tI6
tp1865
I-100
s((I1
I1
I1
I3
I0
I0
I0
I1
tI7
tp1866
I-100
s((I0
I1
I1
I0
I1
I3
I0
I0
tI6
tp1867
I-100
s((I0
I1
I0
I0
I0
I0
I1
I3
tI2
tp1868
I-100
s((I0
I1
I0
I0
I3
I0
I1
I0
tI6
tp1869
I-100
s((I0
I0
I3
I1
I1
I0
I0
I0
tI3
tp1870
F-2.7841366583494986
s((I1
I1
I1
I0
I2
I3
I1
I0
tI6
tp1871
I-100
s((I0
I3
I1
I0
I1
I1
I1
I1
tI2
tp1872
F-101.10122890919889
s((I0
I0
I0
I1
I0
I1
I1
I1
tI0
tp1873
F-12.136634248570825
s((I0
I3
I1
I0
I1
I0
I0
I1
tI6
tp1874
I-100
s((I1
I1
I1
I3
I2
I0
I1
I0
tI1
tp1875
I-100
s((I0
I0
I1
I1
I1
I1
I0
I1
tI0
tp1876
F-4.53276688585101
s((I1
I1
I1
I3
I0
I1
I0
I0
tI4
tp1877
F-3.859442902122284
s((I1
I0
I0
I1
I3
I1
I1
I0
tI3
tp1878
I-100
s((I1
I0
I1
I1
I0
I1
I3
I1
tI4
tp1879
I-100
s((I3
I1
I0
I0
I2
I0
I0
I0
tI0
tp1880
I-100
s((I1
I1
I1
I1
I0
I0
I0
I3
tI1
tp1881
F-5.1720863211606973
s((I3
I1
I0
I0
I0
I0
I1
I2
tI0
tp1882
I-100
s((I3
I0
I1
I1
I0
I1
I1
I0
tI3
tp1883
F-4.7402060196563554
s((I1
I1
I1
I3
I2
I0
I1
I1
tI5
tp1884
I-100
s((I1
I1
I0
I2
I0
I1
I1
I1
tI5
tp1885
I-1
s((I0
I1
I1
I0
I0
I0
I1
I0
tI0
tp1886
F-1.5969714103449646
s((I1
I0
I1
I0
I1
I0
I1
I1
tI2
tp1887
F-10.774505192428682
s((I0
I0
I1
I1
I0
I1
I0
I3
tI2
tp1888
I-100
s((I1
I2
I1
I1
I1
I1
I0
I0
tI2
tp1889
I-1
s((I1
I0
I0
I1
I3
I0
I0
I1
tI7
tp1890
I-100
s((I1
I1
I0
I0
I3
I0
I0
I1
tI7
tp1891
I-100
s((I1
I1
I1
I2
I3
I1
I1
I1
tI5
tp1892
I-100
s((I0
I0
I0
I1
I1
I3
I0
I1
tI1
tp1893
I-100
s((I0
I0
I0
I2
I0
I1
I0
I0
tI6
tp1894
I-1
s((I1
I2
I0
I0
I1
I0
I1
I1
tI4
tp1895
I-1
s((I2
I0
I0
I0
I3
I1
I1
I0
tI0
tp1896
I-1
s((I1
I0
I3
I1
I0
I0
I2
I1
tI2
tp1897
I50
s((I3
I0
I1
I1
I0
I0
I0
I1
tI7
tp1898
I-100
s((I1
I0
I3
I0
I1
I0
I1
I1
tI1
tp1899
F-4.1615239270804576
s((I1
I0
I0
I1
I1
I1
I0
I3
tI2
tp1900
I-100
s((I0
I2
I1
I1
I0
I1
I0
I0
tI3
tp1901
I-1
s((I1
I3
I1
I1
I1
I1
I0
I0
tI7
tp1902
I-100
s((I1
I1
I1
I0
I0
I1
I0
I0
tI1
tp1903
F-3.3184463900273733
s((I2
I3
I0
I1
I0
I1
I1
I1
tI6
tp1904
I-100
s((I0
I3
I1
I1
I0
I1
I0
I0
tI6
tp1905
I-100
s((I3
I1
I1
I0
I2
I1
I1
I1
tI5
tp1906
I-100
s((I1
I1
I1
I3
I1
I1
I2
I1
tI4
tp1907
I-100
s((I1
I0
I3
I1
I0
I1
I2
I1
tI0
tp1908
I-100
s((I1
I0
I0
I1
I3
I1
I0
I1
tI4
tp1909
F-100.23022122242038
s((I3
I0
I2
I0
I1
I1
I0
I0
tI5
tp1910
I50
s((I2
I1
I1
I0
I3
I1
I1
I1
tI7
tp1911
I50
s((I1
I1
I1
I3
I0
I1
I1
I2
tI1
tp1912
I-100
s((I0
I0
I1
I1
I1
I1
I3
I1
tI7
tp1913
F-4.7536324993670034
s((I1
I1
I0
I1
I0
I3
I0
I2
tI0
tp1914
I-100
s((I1
I1
I1
I0
I0
I1
I1
I3
tI0
tp1915
F-5.4993855117792965
s((I1
I1
I1
I3
I1
I1
I2
I0
tI6
tp1916
I-100
s((I1
I1
I0
I3
I0
I0
I0
I1
tI4
tp1917
F-4.3511387698785562
s((I2
I1
I1
I0
I0
I0
I1
I3
tI4
tp1918
I-100
s((I1
I0
I0
I0
I1
I1
I2
I0
tI3
tp1919
I-1
s((I1
I1
I1
I0
I0
I1
I1
I2
tI6
tp1920
I-1
s((I1
I3
I1
I1
I0
I1
I0
I0
tI7
tp1921
I-100
s((I0
I0
I1
I1
I3
I1
I0
I0
tI2
tp1922
I-100
s((I2
I1
I1
I0
I0
I3
I1
I0
tI1
tp1923
I-100
s((I0
I0
I0
I2
I1
I1
I0
I3
tI3
tp1924
I-100
s((I3
I0
I2
I0
I0
I1
I0
I0
tI5
tp1925
I50
s((I0
I1
I1
I0
I0
I1
I0
I1
tI0
tp1926
F-1.8756273512948658
s((I1
I0
I1
I1
I0
I1
I0
I1
tI3
tp1927
F-10.574517545381317
s((I1
I1
I0
I0
I3
I0
I0
I1
tI0
tp1928
F-4.3938701774642936
s((I0
I3
I0
I1
I1
I0
I0
I0
tI6
tp1929
I-100
s((I1
I0
I0
I1
I1
I1
I3
I0
tI5
tp1930
F-4.3116326519143762
s((I1
I1
I1
I2
I0
I1
I1
I3
tI0
tp1931
F48.412350447296909
s((I0
I1
I3
I2
I0
I0
I1
I0
tI6
tp1932
I-100
s((I1
I3
I1
I1
I1
I0
I0
I1
tI6
tp1933
I-100
s((I0
I1
I0
I0
I0
I3
I1
I0
tI2
tp1934
I-100
s((I3
I0
I1
I1
I0
I1
I2
I0
tI2
tp1935
F40.72901040077366
s((I0
I3
I0
I1
I1
I0
I0
I1
tI4
tp1936
I-100
s((I0
I0
I1
I0
I0
I0
I0
I1
tI2
tp1937
F-2.0251892971495482
s((I1
I1
I1
I0
I0
I0
I1
I3
tI3
tp1938
I-100
s((I1
I1
I1
I0
I0
I1
I1
I1
tI1
tp1939
F-2.8847924495721586
s((I1
I1
I1
I1
I3
I0
I0
I0
tI5
tp1940
I-100
s((I1
I1
I1
I3
I0
I0
I1
I2
tI6
tp1941
I-100
s((I1
I0
I0
I3
I1
I0
I1
I1
tI0
tp1942
I-100
s((I1
I1
I0
I0
I0
I0
I3
I1
tI6
tp1943
I-100
s((I0
I1
I0
I0
I3
I0
I1
I1
tI7
tp1944
F-3.9839642576926355
s((I0
I0
I3
I1
I1
I0
I0
I1
tI2
tp1945
F-5.2157525159537368
s((I1
I0
I3
I1
I1
I1
I2
I1
tI5
tp1946
I-100
s((I3
I1
I0
I0
I0
I1
I1
I1
tI2
tp1947
I-100
s((I1
I3
I1
I0
I1
I2
I0
I1
tI0
tp1948
I-100
s((I1
I1
I0
I3
I0
I1
I1
I1
tI1
tp1949
I-100
s((I0
I1
I1
I0
I0
I1
I1
I1
tI7
tp1950
I-100
s((I0
I1
I3
I2
I0
I0
I0
I0
tI0
tp1951
F49.693531679477005
s((I0
I0
I1
I0
I3
I0
I0
I1
tI1
tp1952
F-10.009544149
s((I1
I1
I1
I0
I0
I0
I0
I3
tI1
tp1953
F-3.7428641504427826
s((I3
I0
I1
I0
I1
I0
I0
I1
tI5
tp1954
I-100
s((I1
I1
I1
I0
I1
I1
I3
I1
tI3
tp1955
F-101.48603844133227
s((I0
I0
I0
I1
I1
I3
I0
I0
tI6
tp1956
F-4.3799776423247376
s((I0
I1
I3
I0
I0
I0
I1
I0
tI0
tp1957
F-4.54868961797232
s((I0
I0
I0
I0
I3
I1
I1
I2
tI1
tp1958
I-100
s((I1
I1
I1
I1
I0
I1
I0
I1
tI5
tp1959
F-18.876617650980275
s((I1
I1
I1
I1
I3
I1
I0
I1
tI2
tp1960
F-100.27834295859846
s((I1
I1
I1
I0
I0
I1
I0
I3
tI5
tp1961
I-100
s((I2
I1
I0
I0
I3
I0
I1
I0
tI4
tp1962
I-100
s((I3
I0
I1
I1
I0
I1
I0
I2
tI5
tp1963
I-100
s((I1
I0
I0
I3
I1
I0
I1
I1
tI7
tp1964
I-100
s((I0
I0
I1
I3
I0
I0
I1
I1
tI6
tp1965
I-100
s((I0
I0
I1
I1
I2
I3
I0
I1
tI3
tp1966
I-100
s((I0
I1
I3
I0
I0
I1
I0
I1
tI2
tp1967
F-3.3848752647416434
s((I0
I0
I1
I0
I0
I3
I0
I1
tI2
tp1968
I-100
s((I1
I0
I3
I1
I1
I1
I2
I1
tI2
tp1969
F48.945563782241649
s((I1
I1
I1
I0
I0
I0
I3
I1
tI4
tp1970
F-100.28522424144737
s((I3
I0
I0
I1
I1
I0
I0
I0
tI0
tp1971
I-100
s((I0
I1
I0
I0
I0
I1
I3
I1
tI5
tp1972
F-4.5203478561151895
s((I0
I1
I1
I3
I0
I0
I1
I2
tI5
tp1973
I-100
s((I1
I1
I0
I3
I0
I1
I1
I1
tI6
tp1974
I-100
s((I1
I1
I3
I0
I0
I1
I1
I1
tI1
tp1975
I-100
s((I0
I1
I1
I0
I0
I0
I1
I3
tI6
tp1976
I-100
s((I0
I0
I1
I0
I2
I3
I0
I1
tI2
tp1977
I-100
s((I0
I0
I1
I1
I3
I2
I0
I1
tI0
tp1978
I-100
s((I1
I0
I0
I1
I1
I1
I3
I1
tI4
tp1979
I-100
s((I0
I0
I0
I1
I1
I3
I0
I0
tI1
tp1980
I-100
s((I1
I1
I1
I0
I2
I0
I1
I1
tI2
tp1981
I-1
s((I0
I0
I0
I0
I1
I2
I1
I1
tI0
tp1982
I-1
s((I1
I2
I1
I1
I0
I1
I3
I1
tI0
tp1983
I-100
s((I1
I0
I1
I0
I0
I0
I1
I0
tI5
tp1984
F-1.5915116408150887
s((I0
I1
I0
I3
I0
I1
I1
I1
tI4
tp1985
F-4.3999652780572216
s((I1
I0
I0
I0
I3
I1
I1
I0
tI3
tp1986
I-100
s((I1
I1
I1
I3
I0
I0
I0
I0
tI7
tp1987
I-100
s((I0
I0
I1
I0
I3
I0
I1
I1
tI5
tp1988
I-100
s((I2
I0
I1
I1
I0
I1
I0
I3
tI4
tp1989
I-100
s((I1
I0
I0
I1
I0
I3
I0
I1
tI7
tp1990
I-100
s((I3
I0
I1
I1
I2
I0
I0
I1
tI3
tp1991
I-100
s((I0
I1
I0
I2
I0
I1
I1
I1
tI3
tp1992
I-1
s((I0
I0
I0
I0
I1
I1
I2
I0
tI6
tp1993
I-1
s((I3
I0
I0
I1
I1
I0
I0
I0
tI7
tp1994
I-100
s((I0
I0
I1
I0
I1
I0
I2
I1
tI2
tp1995
F48.71582239070468
s((I0
I0
I3
I1
I1
I2
I0
I1
tI2
tp1996
I-1
s((I1
I0
I3
I0
I0
I1
I1
I0
tI0
tp1997
F-4.0156468880046576
s((I1
I1
I1
I1
I0
I0
I0
I2
tI4
tp1998
I-1
s((I0
I1
I1
I0
I1
I0
I0
I0
tI4
tp1999
F-2.2986566456261746
s((I0
I2
I0
I1
I1
I3
I0
I1
tI6
tp2000
F49.587137456887795
s((I1
I0
I0
I1
I0
I0
I3
I1
tI3
tp2001
I-100
s((I0
I1
I0
I0
I0
I0
I1
I1
tI0
tp2002
F-2.6736583315807723
s((I0
I1
I0
I0
I0
I0
I1
I3
tI5
tp2003
F-4.6729984683617456
s((I1
I0
I2
I1
I0
I0
I3
I1
tI1
tp2004
I-100
s((I1
I0
I0
I0
I1
I0
I1
I1
tI3
tp2005
F-1.7914476627865445
s((I1
I1
I1
I0
I2
I0
I1
I1
tI5
tp2006
I-1
s((I1
I0
I3
I1
I1
I1
I0
I1
tI3
tp2007
I-100
s((I1
I3
I1
I1
I0
I1
I0
I1
tI3
tp2008
I-100
s((I1
I0
I1
I1
I1
I0
I0
I1
tI5
tp2009
F-4.3142286340593037
s((I1
I0
I1
I0
I0
I2
I1
I3
tI7
tp2010
I-100
s((I0
I0
I3
I1
I1
I2
I0
I0
tI3
tp2011
I-1
s((I0
I1
I1
I0
I3
I1
I1
I1
tI3
tp2012
I-100
s((I3
I1
I2
I0
I0
I1
I1
I1
tI3
tp2013
I-100
s((I1
I0
I1
I1
I0
I1
I3
I0
tI2
tp2014
I-100
s((I1
I0
I3
I1
I1
I1
I0
I2
tI3
tp2015
F48.689544325844729
s((I0
I0
I2
I0
I0
I1
I1
I0
tI0
tp2016
I-1
s((I1
I0
I1
I1
I1
I1
I0
I2
tI4
tp2017
I-1
s((I1
I0
I3
I0
I1
I1
I1
I1
tI2
tp2018
I-100
s((I1
I1
I1
I3
I0
I0
I1
I1
tI7
tp2019
I-100
s((I2
I1
I0
I0
I0
I1
I3
I1
tI3
tp2020
I-100
s((I2
I0
I0
I1
I3
I1
I1
I1
tI0
tp2021
I-100
s((I0
I1
I0
I3
I0
I0
I1
I0
tI5
tp2022
F-3.9769797396837778
s((I0
I1
I1
I0
I1
I0
I0
I0
tI3
tp2023
F-11.231395390000001
s((I1
I3
I1
I0
I1
I0
I0
I1
tI3
tp2024
I-100
s((I1
I3
I1
I0
I1
I0
I1
I1
tI2
tp2025
I-100
s((I3
I1
I2
I0
I0
I1
I0
I1
tI0
tp2026
I-100
s((I1
I0
I0
I0
I1
I1
I1
I1
tI0
tp2027
F-1.9558254928443264
s((I3
I0
I1
I1
I1
I1
I2
I1
tI6
tp2028
I-100
s((I1
I3
I1
I1
I1
I1
I2
I1
tI4
tp2029
I-100
s((I1
I1
I1
I1
I0
I3
I0
I0
tI1
tp2030
I-100
s((I0
I0
I0
I2
I0
I1
I1
I3
tI3
tp2031
I-100
s((I1
I1
I0
I1
I0
I0
I0
I0
tI1
tp2032
F-2.8067594671183391
s((I1
I1
I2
I0
I0
I0
I0
I1
tI0
tp2033
I-1
s((I1
I0
I3
I0
I1
I1
I0
I0
tI6
tp2034
I-100
s((I1
I0
I0
I1
I0
I1
I0
I0
tI7
tp2035
F-4.007305435477134
s((I0
I0
I3
I0
I0
I1
I0
I2
tI5
tp2036
I-100
s((I3
I0
I1
I0
I0
I0
I1
I1
tI4
tp2037
F-4.0630736213800027
s((I0
I1
I3
I0
I0
I1
I1
I1
tI2
tp2038
I-100
s((I0
I1
I0
I0
I0
I0
I0
I0
tI5
tp2039
F-11.167957810000001
s((I1
I3
I1
I1
I1
I1
I0
I1
tI0
tp2040
I-100
s((I0
I1
I1
I0
I1
I1
I0
I1
tI3
tp2041
F-3.0020190637241426
s((I0
I3
I0
I0
I0
I1
I2
I0
tI0
tp2042
I-100
s((I0
I1
I1
I0
I3
I1
I0
I1
tI4
tp2043
I-100
s((I1
I0
I1
I1
I0
I1
I3
I0
tI5
tp2044
I-100
s((I1
I1
I3
I1
I0
I0
I2
I0
tI1
tp2045
I-1
s((I1
I0
I0
I1
I0
I1
I0
I1
tI7
tp2046
F-10.774505192428682
s((I0
I0
I0
I1
I2
I1
I1
I1
tI3
tp2047
I-1
s((I1
I3
I1
I1
I1
I1
I0
I2
tI2
tp2048
I-1
s((I1
I0
I0
I0
I1
I3
I1
I1
tI1
tp2049
I-100
s((I1
I0
I1
I1
I1
I1
I3
I1
tI4
tp2050
I-100
s((I0
I0
I1
I1
I0
I1
I3
I0
tI7
tp2051
F-4.8042455927603953
s((I3
I0
I0
I1
I0
I1
I1
I1
tI4
tp2052
F-2.6461628628701122
s((I1
I1
I1
I0
I0
I3
I1
I1
tI6
tp2053
I-100
s((I0
I1
I0
I0
I0
I0
I3
I0
tI3
tp2054
I-100
s((I1
I0
I1
I1
I0
I1
I0
I3
tI7
tp2055
I-100
s((I0
I0
I0
I0
I0
I1
I0
I0
tI0
tp2056
F-6.8211531354091397
s((I3
I0
I1
I1
I2
I1
I1
I0
tI4
tp2057
F49.633039908686442
s((I0
I0
I1
I1
I0
I1
I1
I3
tI2
tp2058
I-100
s((I1
I2
I1
I1
I1
I3
I0
I1
tI2
tp2059
I-100
s((I1
I3
I1
I0
I1
I0
I1
I1
tI5
tp2060
I-100
s((I1
I1
I1
I3
I0
I0
I0
I1
tI6
tp2061
I-100
s((I1
I1
I1
I0
I1
I1
I0
I1
tI5
tp2062
F-25.177796221602357
s((I0
I2
I0
I1
I1
I3
I0
I0
tI3
tp2063
I-1
s((I1
I0
I3
I2
I0
I1
I1
I1
tI4
tp2064
I-100
s((I1
I2
I0
I0
I1
I3
I1
I1
tI1
tp2065
I-100
s((I1
I0
I0
I1
I1
I1
I3
I1
tI7
tp2066
I-100
s((I1
I0
I3
I1
I0
I1
I0
I1
tI7
tp2067
I-100
s((I3
I0
I0
I0
I0
I1
I0
I0
tI4
tp2068
F-5.6084878493341979
s((I1
I2
I3
I0
I1
I1
I1
I1
tI5
tp2069
I-100
s((I1
I0
I0
I1
I1
I1
I0
I1
tI7
tp2070
F-3.9376717622846074
s((I1
I0
I3
I1
I0
I1
I0
I0
tI7
tp2071
I-100
s((I1
I3
I1
I0
I0
I0
I1
I0
tI1
tp2072
F-4.252638755271084
s((I1
I1
I1
I3
I0
I0
I0
I1
tI3
tp2073
I-100
s((I0
I0
I0
I1
I2
I1
I1
I1
tI4
tp2074
I50
s((I1
I0
I0
I3
I1
I1
I1
I1
tI1
tp2075
I-100
s((I1
I0
I1
I1
I1
I1
I3
I1
tI3
tp2076
I-100
s((I0
I1
I0
I0
I0
I0
I1
I0
tI3
tp2077
F-1.7396425042148307
s((I1
I0
I0
I0
I0
I1
I1
I1
tI2
tp2078
F-4.4357009020005966
s((I0
I1
I0
I0
I0
I0
I3
I0
tI4
tp2079
I-100
s((I1
I0
I0
I1
I0
I0
I0
I1
tI6
tp2080
F-1.5560245185204438
s((I0
I0
I1
I0
I2
I0
I1
I1
tI7
tp2081
I-100
s((I1
I1
I1
I0
I0
I3
I1
I0
tI3
tp2082
F-4.6145383609377815
s((I1
I1
I0
I0
I0
I0
I0
I1
tI6
tp2083
F-2.4304527696523546
s((I0
I0
I0
I0
I0
I1
I0
I2
tI4
tp2084
I-1
s((I3
I0
I1
I0
I1
I1
I1
I1
tI6
tp2085
F-100.50159804679024
s((I0
I3
I1
I1
I0
I0
I0
I1
tI1
tp2086
F-3.4380610054679801
s((I1
I1
I1
I3
I0
I0
I1
I0
tI5
tp2087
I-100
s((I2
I1
I3
I0
I0
I0
I0
I0
tI5
tp2088
I-100
s((I1
I1
I1
I0
I3
I0
I1
I1
tI1
tp2089
F0.20640226100017056
s((I0
I0
I1
I1
I3
I1
I1
I0
tI1
tp2090
I-100
s((I1
I1
I1
I2
I0
I1
I0
I0
tI0
tp2091
I50
s((I1
I1
I1
I0
I1
I1
I0
I1
tI2
tp2092
F-21.879814370344224
s((I0
I0
I0
I0
I1
I1
I3
I0
tI2
tp2093
I-100
s((I0
I3
I1
I0
I1
I0
I2
I1
tI4
tp2094
I-100
s((I1
I1
I1
I0
I1
I1
I0
I0
tI4
tp2095
F-2.7383640467941488
s((I1
I0
I0
I1
I1
I1
I3
I1
tI0
tp2096
I-100
s((I1
I3
I1
I1
I0
I1
I2
I0
tI2
tp2097
I50
s((I3
I0
I2
I1
I0
I1
I1
I1
tI5
tp2098
F49.646175502557838
s((I3
I1
I0
I0
I0
I1
I0
I1
tI6
tp2099
I-100
s((I3
I0
I1
I0
I1
I1
I1
I1
tI3
tp2100
F-100.58574336665072
s((I1
I0
I1
I1
I0
I1
I1
I1
tI6
tp2101
F-9.0070309604382714
s((I1
I0
I1
I0
I1
I0
I0
I1
tI1
tp2102
F-3.9815384763639372
s((I0
I0
I0
I0
I1
I0
I1
I1
tI5
tp2103
I-100
s((I0
I0
I0
I0
I3
I1
I1
I0
tI0
tp2104
F-4.9910016503536436
s((I3
I1
I1
I0
I1
I0
I0
I2
tI5
tp2105
I-100
s((I1
I3
I1
I0
I0
I0
I1
I0
tI6
tp2106
I-100
s((I1
I0
I0
I3
I1
I1
I0
I0
tI0
tp2107
I-100
s((I1
I0
I3
I1
I0
I1
I1
I0
tI6
tp2108
I-100
s((I1
I2
I0
I1
I0
I1
I0
I0
tI3
tp2109
I-100
s((I3
I0
I0
I0
I0
I1
I1
I0
tI7
tp2110
I-100
s((I0
I1
I0
I2
I0
I1
I0
I1
tI4
tp2111
I-1
s((I0
I0
I0
I0
I1
I3
I1
I1
tI5
tp2112
F-4.5130079043562707
s((I1
I0
I1
I1
I0
I1
I0
I0
tI2
tp2113
F-2.5431494157871177
s((I1
I1
I0
I1
I0
I3
I0
I0
tI7
tp2114
I-100
s((I1
I1
I1
I0
I3
I0
I2
I1
tI3
tp2115
I-100
s((I2
I1
I1
I0
I1
I3
I0
I0
tI1
tp2116
I-100
s((I1
I1
I1
I3
I1
I1
I0
I1
tI2
tp2117
I-100
s((I2
I0
I1
I1
I3
I0
I0
I1
tI2
tp2118
I-100
s((I0
I0
I1
I1
I3
I0
I0
I1
tI3
tp2119
I-100
s((I0
I3
I0
I1
I1
I0
I0
I2
tI4
tp2120
I-100
s((I1
I1
I1
I2
I1
I1
I0
I3
tI4
tp2121
I-100
s((I0
I1
I3
I0
I2
I1
I1
I1
tI0
tp2122
I-1
s((I1
I1
I1
I3
I1
I1
I0
I1
tI6
tp2123
F-100.70297570483322
s((I1
I1
I1
I3
I0
I0
I0
I1
tI2
tp2124
I-100
s((I1
I2
I1
I0
I0
I0
I1
I3
tI3
tp2125
I-100
s((I1
I0
I1
I1
I3
I1
I1
I1
tI5
tp2126
F-100.95631911776205
s((I1
I1
I1
I0
I3
I1
I1
I1
tI1
tp2127
I-100
s((I1
I1
I1
I0
I2
I1
I1
I1
tI2
tp2128
I-1
s((I3
I1
I0
I0
I0
I0
I0
I2
tI1
tp2129
I-1
s((I0
I1
I0
I0
I3
I1
I1
I1
tI6
tp2130
I-100
s((I1
I1
I1
I3
I0
I1
I1
I0
tI6
tp2131
I-100
s((I0
I0
I1
I1
I0
I3
I0
I1
tI7
tp2132
F-4.7652752682433075
s((I1
I2
I1
I3
I1
I0
I0
I1
tI2
tp2133
I-100
s((I1
I0
I0
I1
I0
I0
I3
I1
tI7
tp2134
I-100
s((I1
I1
I3
I1
I0
I0
I2
I1
tI6
tp2135
I-100
s((I3
I0
I0
I1
I1
I0
I0
I1
tI4
tp2136
I-100
s((I3
I0
I1
I0
I1
I0
I2
I1
tI1
tp2137
I-1
s((I3
I0
I1
I1
I0
I1
I0
I0
tI3
tp2138
F-5.1624587947471419
s((I3
I1
I2
I0
I0
I1
I0
I1
tI4
tp2139
I-1
s((I0
I0
I3
I0
I1
I2
I1
I1
tI1
tp2140
I50
s((I0
I1
I0
I0
I0
I0
I1
I3
tI0
tp2141
F-4.7105829664774301
s((I3
I0
I0
I1
I1
I0
I0
I2
tI2
tp2142
I-1
s((I0
I0
I1
I0
I0
I3
I1
I1
tI4
tp2143
F-4.4402071155316953
s((I3
I1
I0
I0
I0
I0
I1
I1
tI5
tp2144
F-4.7590982809599414
s((I1
I1
I0
I1
I0
I0
I0
I1
tI4
tp2145
F-1.4759225876998097
s((I1
I0
I0
I0
I1
I1
I0
I0
tI1
tp2146
F-1.7186952768332453
s((I0
I0
I0
I0
I1
I3
I1
I1
tI2
tp2147
I-100
s((I1
I1
I0
I0
I0
I1
I1
I1
tI4
tp2148
F-4.2014541630354865
s((I1
I3
I1
I0
I1
I0
I0
I1
tI5
tp2149
I-100
s((I1
I2
I1
I1
I1
I0
I0
I1
tI3
tp2150
I-1
s((I1
I1
I1
I3
I1
I1
I0
I0
tI2
tp2151
I-100
s((I1
I2
I1
I0
I0
I0
I1
I3
tI4
tp2152
I-100
s((I3
I1
I1
I0
I0
I1
I1
I1
tI1
tp2153
I-100
s((I2
I0
I0
I1
I0
I1
I1
I1
tI2
tp2154
I-1
s((I0
I0
I3
I0
I0
I1
I0
I0
tI0
tp2155
F-10
s((I0
I1
I3
I0
I0
I0
I1
I2
tI5
tp2156
I-100
s((I0
I0
I0
I0
I1
I3
I1
I1
tI6
tp2157
F-4.5238069054045109
s((I1
I1
I1
I0
I3
I0
I0
I1
tI3
tp2158
I-100
s((I0
I0
I0
I1
I1
I0
I0
I3
tI2
tp2159
I-100
s((I3
I0
I1
I0
I1
I0
I2
I1
tI6
tp2160
I-100
s((I3
I1
I0
I0
I0
I2
I1
I1
tI0
tp2161
I-100
s((I0
I0
I3
I2
I1
I0
I1
I1
tI6
tp2162
I-100
s((I0
I1
I0
I2
I3
I0
I1
I1
tI1
tp2163
I-1
s((I1
I1
I1
I2
I0
I0
I1
I3
tI3
tp2164
I-100
s((I1
I0
I1
I0
I1
I3
I1
I1
tI7
tp2165
I-100
s((I1
I0
I1
I1
I1
I1
I3
I0
tI7
tp2166
I-100
s((I1
I1
I1
I0
I3
I2
I1
I1
tI1
tp2167
I50
s((I3
I1
I1
I0
I1
I1
I0
I1
tI3
tp2168
I-100
s((I0
I1
I0
I3
I0
I1
I1
I1
tI1
tp2169
I-100
s((I1
I1
I1
I0
I0
I0
I1
I1
tI2
tp2170
F-2.8296510809575484
s((I0
I1
I0
I0
I0
I1
I1
I1
tI6
tp2171
F-1.9020621575208989
s((I0
I1
I3
I2
I0
I1
I1
I1
tI6
tp2172
I-100
s((I1
I1
I1
I2
I0
I0
I1
I0
tI0
tp2173
I50
s((I0
I0
I0
I1
I3
I1
I1
I1
tI0
tp2174
I-100
s((I1
I2
I0
I1
I1
I1
I0
I3
tI6
tp2175
F48.978664911613357
s((I0
I0
I0
I1
I1
I0
I0
I3
tI5
tp2176
F-3.3502398217333962
s((I1
I1
I1
I0
I0
I0
I0
I0
tI0
tp2177
F-3.4370243535938156
s((I1
I2
I0
I3
I1
I1
I0
I0
tI4
tp2178
I-100
s((I1
I0
I1
I0
I0
I0
I1
I3
tI1
tp2179
F-3.8093975527864483
s((I0
I2
I0
I0
I1
I1
I3
I0
tI2
tp2180
I-100
s((I1
I1
I1
I0
I2
I0
I3
I1
tI4
tp2181
I-100
s((I1
I0
I0
I3
I0
I1
I1
I1
tI0
tp2182
I-100
s((I3
I2
I1
I0
I1
I1
I1
I1
tI1
tp2183
I-100
s((I1
I1
I1
I0
I0
I0
I0
I1
tI6
tp2184
F-2.7124491860086728
s((I0
I0
I2
I0
I0
I1
I1
I0
tI7
tp2185
I-1
s((I3
I1
I0
I0
I0
I0
I1
I0
tI6
tp2186
I-100
s((I1
I1
I1
I0
I0
I3
I1
I1
tI0
tp2187
I-100
s((I1
I0
I1
I3
I1
I0
I0
I1
tI6
tp2188
F-100.5613520769864
s((I3
I1
I1
I0
I1
I1
I0
I1
tI4
tp2189
I-100
s((I0
I0
I1
I0
I3
I2
I1
I1
tI5
tp2190
I-100
s((I3
I1
I1
I0
I0
I1
I0
I1
tI4
tp2191
F-5.0134848264469669
s((I1
I0
I0
I1
I0
I1
I1
I3
tI3
tp2192
I-100
s((I0
I0
I1
I1
I0
I0
I0
I1
tI5
tp2193
F-2.061609488723231
s((I0
I1
I3
I0
I0
I0
I0
I0
tI6
tp2194
I-100
s((I0
I1
I3
I2
I0
I1
I1
I1
tI1
tp2195
I-100
s((I1
I1
I3
I0
I0
I0
I0
I1
tI7
tp2196
I-100
s((I1
I1
I1
I0
I2
I0
I1
I3
tI7
tp2197
I-100
s((I3
I1
I0
I0
I0
I0
I1
I0
tI3
tp2198
F-4.5583003331974563
s((I0
I0
I1
I1
I0
I1
I0
I0
tI3
tp2199
F-11.747696746079137
s((I1
I1
I1
I2
I3
I0
I0
I1
tI4
tp2200
I-100
s((I1
I2
I0
I1
I1
I1
I3
I1
tI0
tp2201
I-100
s((I3
I1
I1
I0
I0
I1
I0
I1
tI2
tp2202
F-5.0448882643738457
s((I1
I3
I1
I1
I0
I1
I2
I0
tI5
tp2203
I-100
s((I3
I0
I0
I0
I1
I1
I0
I0
tI4
tp2204
I-100
s((I0
I1
I1
I3
I0
I0
I1
I0
tI2
tp2205
I-100
s((I0
I3
I1
I0
I0
I0
I0
I1
tI6
tp2206
I-100
s((I1
I0
I1
I0
I0
I0
I1
I3
tI6
tp2207
F-2.6370111304656501
s((I1
I0
I1
I3
I1
I0
I1
I1
tI2
tp2208
F-100.17438034864466
s((I0
I0
I3
I0
I1
I1
I0
I0
tI3
tp2209
F-4.4545153575260557
s((I0
I1
I1
I0
I0
I3
I1
I0
tI4
tp2210
F-4.215106735818531
s((I3
I2
I0
I0
I0
I1
I1
I0
tI0
tp2211
I-100
s((I1
I1
I1
I0
I0
I1
I1
I0
tI3
tp2212
F-11.796961795696625
s((I1
I0
I0
I3
I0
I1
I1
I0
tI4
tp2213
F-4.5926022815328773
s((I3
I2
I1
I1
I0
I1
I0
I0
tI1
tp2214
I-100
s((I1
I0
I0
I3
I2
I1
I1
I0
tI3
tp2215
I-1
s((I1
I1
I1
I0
I3
I2
I0
I1
tI1
tp2216
I50
s((I0
I1
I0
I0
I0
I1
I0
I1
tI7
tp2217
I-100
s((I0
I1
I1
I0
I1
I0
I3
I0
tI7
tp2218
F-5.1635549872377595
s((I1
I1
I3
I1
I0
I0
I0
I0
tI5
tp2219
I-100
s((I1
I0
I0
I0
I1
I1
I0
I0
tI0
tp2220
F-1.4159240119945
s((I1
I0
I0
I1
I3
I2
I0
I1
tI1
tp2221
I50
s((I0
I0
I3
I0
I1
I0
I1
I1
tI4
tp2222
I-100
s((I0
I0
I1
I0
I1
I0
I0
I1
tI3
tp2223
F-4.0725612095576773
s((I1
I1
I1
I2
I3
I0
I0
I1
tI3
tp2224
I-100
s((I0
I0
I1
I0
I1
I1
I1
I1
tI7
tp2225
F-12.408983584360707
s((I0
I0
I3
I0
I1
I1
I0
I0
tI6
tp2226
I-100
s((I1
I3
I1
I1
I1
I0
I2
I1
tI0
tp2227
I-100
s((I3
I0
I1
I0
I2
I0
I1
I1
tI6
tp2228
I-100
s((I1
I0
I0
I1
I0
I1
I3
I1
tI4
tp2229
I-100
s((I3
I1
I1
I0
I0
I0
I1
I0
tI3
tp2230
F-4.3142043880855825
s((I1
I0
I3
I0
I1
I1
I0
I2
tI1
tp2231
I-100
s((I2
I0
I1
I1
I0
I1
I1
I3
tI7
tp2232
F49.692889966957182
s((I1
I1
I1
I0
I2
I3
I1
I1
tI1
tp2233
I-100
s((I3
I0
I1
I1
I1
I1
I0
I1
tI4
tp2234
I-100
s((I3
I1
I1
I2
I0
I1
I0
I1
tI4
tp2235
I-1
s((I1
I0
I1
I1
I1
I1
I0
I0
tI7
tp2236
F-4.936695633391162
s((I1
I0
I0
I1
I0
I1
I0
I3
tI3
tp2237
I-100
s((I0
I0
I3
I0
I1
I1
I2
I0
tI2
tp2238
F49.694470065203838
s((I1
I1
I1
I1
I0
I0
I0
I0
tI1
tp2239
F-11.433996510037039
s((I0
I0
I3
I1
I0
I1
I1
I1
tI7
tp2240
F-5.0226248170919421
s((I1
I0
I1
I1
I1
I1
I0
I3
tI3
tp2241
I-100
s((I1
I0
I0
I1
I0
I1
I3
I0
tI6
tp2242
F-4.402674079185994
s((I1
I1
I0
I1
I0
I3
I0
I1
tI3
tp2243
I-100
s((I0
I0
I0
I1
I1
I0
I0
I0
tI0
tp2244
F-2.4735601128720708
s((I1
I0
I3
I1
I0
I0
I0
I1
tI7
tp2245
I-100
s((I1
I3
I1
I1
I0
I1
I0
I2
tI2
tp2246
I-1
s((I1
I0
I1
I1
I3
I1
I0
I1
tI2
tp2247
F-100.11812391731381
s((I1
I0
I1
I3
I0
I0
I1
I0
tI1
tp2248
I-100
s((I1
I0
I1
I1
I0
I1
I0
I1
tI5
tp2249
F-10.474010789851901
s((I1
I3
I1
I1
I1
I1
I0
I2
tI1
tp2250
I-100
s((I0
I3
I0
I0
I0
I1
I0
I0
tI2
tp2251
F-5.4520117482818584
s((I1
I0
I2
I3
I0
I1
I1
I0
tI1
tp2252
I-100
s((I1
I1
I3
I1
I0
I0
I0
I0
tI2
tp2253
F-4.8122603538807391
s((I0
I1
I1
I2
I1
I0
I0
I0
tI2
tp2254
I-1
s((I1
I0
I0
I0
I0
I1
I1
I3
tI4
tp2255
I-100
s((I0
I3
I1
I0
I0
I0
I1
I1
tI0
tp2256
I-100
s((I3
I1
I1
I0
I1
I0
I2
I0
tI0
tp2257
I-100
s((I3
I1
I1
I0
I1
I0
I0
I2
tI2
tp2258
I-1
s((I1
I0
I0
I0
I1
I1
I0
I3
tI0
tp2259
F-4.5990098854594015
s((I0
I1
I1
I0
I1
I0
I0
I3
tI1
tp2260
F-5.0123142322768954
s((I2
I0
I3
I0
I1
I0
I1
I1
tI6
tp2261
I-100
s((I0
I1
I1
I0
I0
I1
I1
I1
tI6
tp2262
F-2.6870130570538806
s((I0
I0
I0
I0
I1
I1
I0
I0
tI3
tp2263
F-10.9
s((I1
I0
I3
I1
I0
I1
I0
I0
tI0
tp2264
I-100
s((I0
I0
I0
I0
I1
I1
I0
I3
tI6
tp2265
F-10.201643020000002
s((I0
I0
I1
I1
I0
I1
I1
I0
tI4
tp2266
I-100
s((I3
I0
I0
I0
I1
I1
I0
I0
tI6
tp2267
I-100
s((I3
I0
I0
I0
I2
I1
I0
I0
tI0
tp2268
I-100
s((I0
I2
I0
I0
I1
I3
I1
I1
tI7
tp2269
I-1
s((I0
I1
I0
I0
I0
I0
I1
I0
tI0
tp2270
F-1.6846480634074386
s((I1
I0
I0
I1
I1
I1
I0
I0
tI6
tp2271
F-1.5028051336639852
s((I1
I1
I1
I3
I0
I1
I1
I1
tI0
tp2272
I-100
s((I0
I2
I1
I1
I0
I1
I0
I3
tI0
tp2273
I-100
s((I1
I1
I1
I2
I0
I3
I1
I0
tI3
tp2274
I-1
s((I3
I1
I1
I2
I0
I0
I1
I0
tI3
tp2275
I-1
s((I1
I0
I3
I2
I1
I1
I1
I1
tI7
tp2276
I-100
s((I0
I1
I3
I0
I0
I2
I0
I0
tI0
tp2277
I-1
s((I1
I3
I1
I1
I1
I1
I2
I1
tI7
tp2278
I-100
s((I1
I2
I0
I1
I1
I1
I3
I1
tI3
tp2279
I-100
s((I1
I1
I1
I0
I2
I3
I1
I0
tI0
tp2280
I-100
s((I1
I0
I1
I1
I1
I1
I0
I3
tI4
tp2281
I-100
s((I0
I0
I1
I1
I0
I1
I0
I3
tI1
tp2282
I-100
s((I1
I3
I0
I0
I1
I0
I1
I1
tI7
tp2283
I-100
s((I1
I1
I1
I3
I0
I1
I0
I0
tI2
tp2284
I-100
s((I0
I0
I1
I0
I0
I0
I1
I1
tI6
tp2285
F-11.711402424046252
s((I1
I1
I0
I1
I3
I0
I0
I1
tI0
tp2286
I-100
s((I1
I1
I1
I1
I0
I0
I0
I3
tI7
tp2287
I-100
s((I1
I1
I0
I1
I1
I1
I1
I1
tI7
tp2288
I-1
s((I0
I0
I1
I1
I3
I1
I1
I0
tI7
tp2289
F-3.3299543160735579
s((I2
I1
I1
I0
I1
I3
I0
I0
tI7
tp2290
F49.621318322492193
s((I0
I1
I1
I0
I1
I0
I0
I3
tI6
tp2291
I-100
s((I0
I3
I1
I1
I1
I1
I0
I1
tI2
tp2292
F-4.9343601621335678
s((I1
I1
I3
I0
I0
I1
I1
I1
tI0
tp2293
F-5.4664186597323807
s((I1
I1
I0
I1
I0
I2
I0
I1
tI7
tp2294
I-1
s((I0
I0
I0
I0
I1
I1
I0
I3
tI1
tp2295
I-100
s((I1
I1
I1
I1
I0
I1
I3
I1
tI6
tp2296
F-101.00867688259702
s((I1
I0
I1
I1
I0
I1
I0
I1
tI0
tp2297
F-10.527160845658043
s((I1
I0
I1
I1
I1
I1
I2
I1
tI0
tp2298
I-1
s((I1
I3
I1
I0
I1
I0
I1
I1
tI4
tp2299
I-100
s((I0
I1
I1
I0
I1
I3
I0
I0
tI1
tp2300
I-100
s((I0
I1
I1
I0
I1
I3
I0
I2
tI4
tp2301
I-100
s((I1
I1
I1
I0
I0
I1
I0
I0
tI7
tp2302
F-3.2288835824699067
s((I2
I0
I0
I1
I3
I1
I1
I1
tI1
tp2303
I-100
s((I0
I0
I3
I1
I1
I0
I0
I0
tI0
tp2304
I-100
s((I1
I1
I1
I0
I2
I3
I1
I0
tI7
tp2305
I-100
s((I0
I3
I1
I0
I1
I1
I1
I1
tI5
tp2306
F-102.25741736987069
s((I1
I0
I3
I1
I2
I1
I0
I0
tI5
tp2307
I-100
s((I0
I0
I0
I1
I0
I1
I1
I1
tI3
tp2308
F-18.819884949614412
s((I1
I3
I1
I1
I1
I1
I0
I2
tI5
tp2309
I-100
s((I1
I1
I1
I0
I0
I0
I2
I3
tI1
tp2310
I-1
s((I1
I0
I0
I0
I0
I1
I1
I1
tI7
tp2311
F-4.4616530278640028
s((I0
I0
I1
I1
I1
I1
I0
I1
tI1
tp2312
F-4.5463615935298183
s((I1
I1
I1
I3
I0
I1
I0
I0
tI5
tp2313
I-100
s((I1
I0
I0
I1
I3
I1
I1
I0
tI4
tp2314
I-100
s((I1
I0
I1
I1
I0
I1
I3
I1
tI7
tp2315
I-100
s((I1
I3
I1
I0
I2
I0
I1
I0
tI6
tp2316
I-100
s((I0
I2
I0
I0
I0
I1
I1
I3
tI2
tp2317
I-100
s((I1
I3
I1
I1
I1
I1
I0
I1
tI5
tp2318
I-100
s((I3
I0
I1
I1
I0
I1
I1
I0
tI0
tp2319
I-100
s((I1
I1
I0
I2
I0
I1
I1
I1
tI2
tp2320
I-1
s((I1
I2
I1
I1
I1
I1
I3
I0
tI6
tp2321
I50
s((I1
I0
I0
I1
I1
I1
I2
I0
tI3
tp2322
I-1
s((I1
I0
I1
I0
I1
I0
I1
I1
tI3
tp2323
F-11.212986144147592
s((I2
I1
I1
I0
I1
I3
I0
I0
tI0
tp2324
I-100
s((I1
I2
I1
I1
I1
I1
I0
I3
tI6
tp2325
F48.350120673418488
s((I1
I0
I3
I1
I0
I1
I2
I0
tI3
tp2326
I-1
s((I1
I0
I0
I1
I3
I0
I0
I1
tI6
tp2327
I-100
s((I2
I0
I0
I0
I3
I1
I1
I0
tI7
tp2328
F49.531091519553875
s((I1
I0
I1
I1
I0
I1
I0
I1
tI2
tp2329
F-10.990000000000002
s((I1
I1
I0
I0
I3
I0
I0
I1
tI6
tp2330
I-100
s((I3
I1
I0
I0
I2
I0
I1
I1
tI1
tp2331
I-1
s((I1
I0
I0
I0
I1
I2
I1
I1
tI7
tp2332
I-1
s((I0
I0
I0
I1
I1
I3
I0
I1
tI0
tp2333
I-100
s((I1
I2
I0
I0
I1
I0
I1
I1
tI3
tp2334
I-1
s((I1
I1
I1
I2
I0
I1
I1
I3
tI6
tp2335
I-100
s((I3
I0
I1
I1
I0
I0
I0
I1
tI6
tp2336
I-100
s((I1
I3
I1
I1
I1
I0
I0
I1
tI7
tp2337
I-100
s((I1
I0
I3
I0
I1
I0
I1
I1
tI2
tp2338
I-100
s((I1
I0
I0
I1
I1
I1
I0
I3
tI3
tp2339
I-100
s((I0
I0
I1
I0
I2
I3
I1
I1
tI5
tp2340
I-100
s((I1
I3
I1
I1
I1
I1
I0
I0
tI6
tp2341
I-100
s((I1
I1
I1
I0
I0
I1
I0
I0
tI0
tp2342
F-3.2586063111753711
s((I1
I1
I0
I1
I3
I0
I0
I1
tI6
tp2343
I-100
s((I0
I3
I1
I1
I0
I1
I0
I0
tI5
tp2344
I-100
s((I3
I1
I1
I0
I2
I1
I1
I1
tI4
tp2345
I50
s((I1
I0
I2
I3
I0
I1
I1
I0
tI4
tp2346
I-1
s((I0
I0
I1
I0
I3
I2
I1
I1
tI4
tp2347
I-100
s((I2
I0
I1
I1
I1
I1
I0
I1
tI4
tp2348
I-1
s((I1
I1
I1
I0
I0
I1
I1
I1
tI7
tp2349
F-2.8422530250756695
s((I1
I0
I0
I1
I3
I1
I0
I1
tI5
tp2350
F-100.22373015502266
s((I3
I0
I2
I0
I1
I1
I0
I0
tI2
tp2351
I-1
s((I1
I1
I1
I3
I0
I1
I1
I2
tI0
tp2352
I-100
s((I1
I0
I0
I0
I0
I1
I1
I3
tI3
tp2353
I-100
s((I1
I1
I1
I0
I3
I1
I1
I1
tI2
tp2354
I-100
s((I0
I1
I0
I0
I3
I0
I1
I1
tI1
tp2355
F-4.985650498856514
s((I1
I0
I0
I0
I2
I1
I1
I0
tI4
tp2356
I50
s((I1
I1
I1
I0
I0
I1
I1
I2
tI7
tp2357
I-1
s((I1
I0
I3
I2
I1
I1
I1
I1
tI6
tp2358
I-100
s((I0
I0
I1
I1
I3
I1
I0
I0
tI5
tp2359
I-100
s((I1
I1
I1
I0
I0
I2
I0
I3
tI0
tp2360
I-1
s((I1
I3
I1
I0
I1
I2
I0
I1
tI6
tp2361
I-100
s((I1
I2
I1
I1
I1
I1
I3
I1
tI3
tp2362
I-100
s((I1
I0
I3
I1
I0
I1
I2
I0
tI4
tp2363
I-100
s((I0
I1
I1
I0
I0
I1
I0
I1
tI3
tp2364
F-1.8855574756855136
s((I0
I3
I0
I1
I1
I0
I0
I0
tI7
tp2365
I-100
s((I0
I1
I0
I0
I0
I0
I1
I0
tI1
tp2366
F-11.51314954765618
s((I0
I1
I3
I2
I0
I0
I1
I0
tI7
tp2367
I-1
s((I1
I0
I1
I1
I2
I1
I1
I1
tI6
tp2368
I-1
s((I3
I1
I0
I0
I0
I0
I2
I0
tI5
tp2369
I-1
s((I0
I1
I0
I0
I0
I3
I1
I0
tI3
tp2370
F-4.2173938796477728
s((I3
I0
I1
I0
I1
I0
I0
I1
tI3
tp2371
I-100
s((I0
I1
I0
I3
I0
I1
I1
I1
tI7
tp2372
I-100
s((I0
I1
I3
I2
I0
I1
I0
I1
tI4
tp2373
I-100
s((I0
I3
I0
I1
I1
I0
I0
I1
tI7
tp2374
I-100
s((I1
I1
I1
I1
I0
I1
I0
I1
tI3
tp2375
F-19.120174594665009
s((I0
I0
I1
I0
I0
I0
I0
I1
tI5
tp2376
F-2.1884749827510754
s((I1
I1
I1
I2
I0
I1
I0
I0
tI5
tp2377
I-1
s((I1
I1
I1
I0
I0
I0
I1
I3
tI0
tp2378
F-10
s((I1
I1
I1
I0
I0
I1
I1
I1
tI0
tp2379
F-10.990000000000002
s((I1
I0
I0
I1
I1
I1
I3
I0
tI1
tp2380
I-100
s((I3
I0
I1
I1
I0
I1
I0
I2
tI3
tp2381
I50
s((I1
I1
I1
I1
I3
I0
I0
I0
tI6
tp2382
I-100
s((I1
I0
I0
I3
I1
I0
I1
I1
tI1
tp2383
I-100
s((I0
I0
I1
I1
I2
I3
I0
I1
tI5
tp2384
I-100
s((I0
I1
I0
I0
I3
I0
I1
I1
tI6
tp2385
I-100
s((I0
I0
I3
I1
I1
I0
I0
I1
tI5
tp2386
I-100
s((I1
I0
I3
I1
I1
I1
I2
I1
tI4
tp2387
I-100
s((I1
I1
I1
I0
I0
I0
I3
I1
tI2
tp2388
F-100.13559858631861
s((I1
I2
I0
I0
I1
I1
I0
I3
tI4
tp2389
I-100
s((I2
I0
I1
I1
I1
I1
I3
I1
tI1
tp2390
I-100
s((I3
I1
I0
I0
I0
I1
I1
I1
tI3
tp2391
I-100
s((I1
I1
I0
I3
I0
I1
I1
I1
tI0
tp2392
I-100
s((I1
I1
I0
I0
I3
I1
I1
I1
tI1
tp2393
I-100
s((I1
I1
I1
I1
I0
I0
I0
I2
tI7
tp2394
I-1
s((I0
I0
I1
I0
I3
I0
I0
I1
tI6
tp2395
I-100
s((I1
I1
I1
I0
I0
I0
I0
I3
tI0
tp2396
F-5.0796281806147512
s((I0
I2
I0
I0
I1
I1
I0
I0
tI2
tp2397
I-1
s((I3
I0
I1
I0
I1
I0
I0
I1
tI4
tp2398
I-100
s((I1
I1
I1
I0
I1
I1
I3
I1
tI4
tp2399
F-101.87829128552937
s((I0
I0
I0
I1
I1
I3
I0
I0
tI7
tp2400
F-4.4446844738588487
s((I1
I0
I0
I3
I2
I1
I1
I0
tI6
tp2401
I-100
s((I0
I1
I3
I0
I0
I0
I1
I0
tI1
tp2402
F-4.5947934436413078
s((I0
I0
I0
I0
I3
I1
I1
I2
tI2
tp2403
I-100
s((I1
I1
I1
I1
I0
I1
I0
I1
tI4
tp2404
F-12.454846734613874
s((I0
I2
I0
I1
I1
I3
I0
I1
tI5
tp2405
I-1
s((I1
I1
I1
I1
I3
I1
I0
I1
tI3
tp2406
F-101.02058002765794
s((I2
I0
I1
I1
I0
I3
I0
I1
tI7
tp2407
I50
s((I0
I1
I3
I0
I0
I0
I0
I2
tI0
tp2408
I-1
s((I0
I0
I2
I1
I1
I3
I0
I1
tI5
tp2409
I50
s((I1
I1
I1
I2
I0
I0
I0
I3
tI0
tp2410
I50
s((I1
I0
I0
I1
I0
I3
I0
I1
tI1
tp2411
I-100
s((I0
I0
I1
I3
I0
I0
I1
I1
tI5
tp2412
I-100
s((I2
I1
I3
I0
I0
I1
I0
I1
tI5
tp2413
I-100
s((I0
I1
I3
I0
I0
I1
I0
I1
tI1
tp2414
I-100
s((I0
I0
I1
I0
I0
I3
I0
I1
tI3
tp2415
I-100
s((I1
I1
I1
I0
I0
I0
I3
I1
tI5
tp2416
F-100.1247179732092
s((I3
I0
I0
I1
I1
I0
I0
I0
tI1
tp2417
F-4.2775943541777552
s((I1
I1
I2
I3
I0
I1
I1
I1
tI5
tp2418
F48.47126618743156
s((I0
I1
I0
I0
I0
I1
I3
I1
tI4
tp2419
I-100
s((I1
I1
I1
I0
I0
I0
I0
I2
tI5
tp2420
I-1
s((I0
I1
I1
I3
I0
I0
I1
I2
tI4
tp2421
I-1
s((I0
I3
I1
I0
I2
I0
I1
I1
tI1
tp2422
I-1
s((I0
I1
I1
I0
I0
I0
I1
I3
tI5
tp2423
I-100
s((I3
I1
I0
I0
I0
I0
I0
I2
tI3
tp2424
F49.491467456106093
s((I1
I0
I0
I0
I1
I1
I1
I1
tI6
tp2425
I-100
s((I0
I0
I0
I1
I1
I0
I2
I0
tI2
tp2426
I50
s((I0
I1
I0
I0
I0
I0
I1
I3
tI6
tp2427
I-100
s((I1
I1
I1
I0
I2
I0
I1
I1
tI3
tp2428
I-1
s((I3
I1
I2
I0
I0
I0
I1
I1
tI5
tp2429
I50
s((I1
I0
I1
I0
I0
I0
I1
I0
tI6
tp2430
F-1.6523891140302771
s((I1
I1
I1
I3
I0
I0
I0
I0
tI6
tp2431
I-100
s((I0
I1
I1
I0
I3
I1
I1
I1
tI5
tp2432
I-100
s((I0
I0
I1
I0
I3
I0
I1
I1
tI4
tp2433
I-100
s((I2
I0
I1
I1
I0
I1
I0
I3
tI7
tp2434
F49.269176172277184
s((I1
I0
I0
I1
I0
I3
I0
I1
tI6
tp2435
F-4.4824802946181288
s((I0
I0
I2
I0
I0
I1
I1
I0
tI1
tp2436
I-1
s((I0
I1
I0
I2
I3
I1
I1
I1
tI2
tp2437
I-100
s((I1
I2
I0
I1
I1
I1
I0
I0
tI0
tp2438
I-1
s((I0
I2
I0
I1
I1
I3
I0
I0
tI1
tp2439
I-100
s((I2
I0
I1
I1
I0
I1
I3
I0
tI2
tp2440
I-100
s((I1
I3
I1
I1
I0
I1
I1
I1
tI6
tp2441
F-100.20470016429269
s((I0
I1
I0
I0
I3
I2
I1
I1
tI6
tp2442
I-100
s((I0
I1
I3
I0
I0
I2
I0
I0
tI7
tp2443
I-1
s((I1
I0
I3
I0
I0
I1
I1
I0
tI3
tp2444
F-4.0135398527307551
s((I2
I0
I0
I1
I3
I1
I1
I1
tI7
tp2445
F48.916200192450972
s((I0
I1
I1
I0
I1
I0
I0
I0
tI5
tp2446
F-2.3988802050700944
s((I1
I3
I1
I1
I1
I1
I0
I1
tI4
tp2447
I-100
s((I3
I1
I2
I0
I0
I1
I0
I1
tI1
tp2448
I-100
s((I0
I1
I0
I0
I0
I0
I1
I1
tI1
tp2449
F-11.379559114909002
s((I0
I1
I1
I0
I2
I0
I1
I0
tI0
tp2450
I-1
s((I1
I3
I1
I1
I0
I1
I0
I0
tI0
tp2451
I-100
s((I1
I0
I2
I1
I0
I0
I3
I1
tI0
tp2452
I-100
s((I1
I1
I1
I3
I0
I0
I0
I1
tI1
tp2453
I-100
s((I0
I1
I1
I0
I0
I2
I1
I3
tI5
tp2454
I-100
s((I1
I0
I0
I0
I1
I0
I1
I1
tI2
tp2455
F-1.5056895906234611
s((I0
I0
I1
I2
I3
I0
I0
I1
tI4
tp2456
I-100
s((I1
I0
I3
I1
I1
I1
I0
I1
tI2
tp2457
F-2.5759761995300416
s((I2
I1
I1
I0
I0
I1
I0
I1
tI7
tp2458
I-100
s((I3
I1
I0
I0
I0
I0
I0
I0
tI4
tp2459
F-10
s((I1
I3
I1
I1
I0
I1
I0
I1
tI2
tp2460
I-1
s((I1
I0
I1
I1
I1
I0
I0
I1
tI2
tp2461
F-11.337502472018821
s((I0
I1
I0
I0
I0
I0
I0
I0
tI3
tp2462
F-0.82887438322178175
s((I0
I1
I1
I0
I1
I0
I2
I3
tI3
tp2463
I-100
s((I0
I1
I1
I0
I3
I1
I1
I1
tI2
tp2464
I-100
s((I3
I1
I2
I0
I0
I1
I1
I1
tI4
tp2465
I-1
s((I1
I0
I1
I1
I0
I1
I3
I0
tI3
tp2466
I-100
s((I0
I0
I0
I1
I0
I1
I1
I1
tI1
tp2467
F-17.507208240329501
s((I1
I0
I3
I0
I1
I1
I1
I1
tI1
tp2468
I-100
s((I1
I1
I1
I3
I0
I0
I1
I1
tI6
tp2469
I-100
s((I1
I3
I1
I1
I1
I1
I0
I2
tI3
tp2470
F48.950539801344362
s((I2
I1
I0
I0
I0
I1
I3
I1
tI2
tp2471
I-100
s((I1
I0
I0
I0
I1
I3
I1
I1
tI0
tp2472
I-100
s((I1
I1
I1
I3
I2
I1
I1
I0
tI0
tp2473
I-100
s((I1
I0
I3
I1
I1
I1
I2
I0
tI2
tp2474
F48.435607221964418
s((I0
I1
I0
I3
I0
I0
I1
I0
tI6
tp2475
I-100
s((I3
I0
I0
I1
I0
I1
I1
I1
tI2
tp2476
I-100
s((I0
I1
I1
I2
I3
I1
I1
I1
tI1
tp2477
I-100
s((I1
I3
I1
I0
I1
I0
I0
I1
tI4
tp2478
I-100
s((I0
I0
I3
I1
I2
I1
I1
I1
tI7
tp2479
I-1
s((I0
I0
I0
I0
I0
I1
I0
I0
tI6
tp2480
F-11.569712009987107
s((I1
I0
I0
I0
I1
I1
I1
I1
tI1
tp2481
F-2.1989621502328234
s((I0
I2
I3
I0
I1
I0
I1
I1
tI3
tp2482
I-100
s((I0
I0
I1
I1
I0
I1
I0
I2
tI7
tp2483
I-1
s((I0
I0
I1
I1
I0
I1
I1
I3
tI4
tp2484
I-100
s((I1
I1
I1
I1
I0
I3
I0
I0
tI6
tp2485
I-100
s((I1
I2
I1
I1
I1
I3
I0
I1
tI4
tp2486
I-100
s((I0
I0
I0
I2
I0
I1
I1
I3
tI0
tp2487
F49.524604150575719
s((I0
I0
I1
I1
I0
I1
I2
I0
tI4
tp2488
I-1
s((I1
I1
I0
I1
I0
I0
I0
I0
tI2
tp2489
F-2.754504813166279
s((I1
I1
I2
I0
I0
I0
I0
I1
tI1
tp2490
I-1
s((I0
I0
I1
I1
I0
I1
I0
I2
tI0
tp2491
I-1
s((I1
I0
I3
I0
I1
I1
I0
I0
tI5
tp2492
I-100
s((I1
I0
I0
I1
I0
I1
I0
I0
tI0
tp2493
F-3.9328087833117338
s((I3
I0
I1
I0
I0
I0
I1
I1
tI7
tp2494
I-100
s((I0
I1
I3
I0
I0
I1
I1
I1
tI3
tp2495
I-100
s((I1
I0
I0
I0
I1
I1
I0
I0
tI3
tp2496
F-11.0791
s((I0
I1
I1
I0
I1
I1
I0
I1
tI4
tp2497
F-2.9794280223716738
s((I0
I1
I2
I0
I0
I0
I3
I0
tI0
tp2498
I-100
s((I0
I1
I1
I0
I3
I1
I0
I1
tI5
tp2499
I-100
s((I1
I0
I0
I3
I1
I1
I0
I2
tI5
tp2500
I-1
s((I0
I0
I0
I0
I0
I1
I1
I3
tI0
tp2501
F-4.8343283665239616
s((I1
I0
I0
I1
I0
I1
I0
I1
tI6
tp2502
F-10.990000000000002
s((I3
I1
I0
I0
I0
I0
I1
I1
tI6
tp2503
I-100
s((I2
I1
I0
I0
I0
I0
I3
I0
tI0
tp2504
I-100
s((I1
I0
I1
I3
I0
I0
I1
I2
tI5
tp2505
I-100
s((I1
I2
I0
I3
I0
I1
I1
I1
tI1
tp2506
I-100
s((I1
I1
I1
I2
I3
I1
I1
I1
tI7
tp2507
I-100
s((I0
I0
I1
I1
I0
I1
I3
I0
tI6
tp2508
F-4.8304468446072359
s((I3
I0
I0
I1
I0
I1
I1
I1
tI5
tp2509
F-4.0463416706362159
s((I0
I0
I1
I1
I1
I1
I3
I1
tI5
tp2510
I-100
s((I0
I1
I0
I0
I0
I0
I3
I0
tI2
tp2511
I-100
s((I1
I0
I1
I1
I0
I1
I0
I3
tI4
tp2512
I-100
s((I1
I0
I0
I1
I0
I0
I0
I1
tI0
tp2513
F-1.7171394595050065
s((I3
I1
I0
I0
I0
I0
I1
I1
tI4
tp2514
F-4.7348257506236937
s((I0
I0
I0
I0
I0
I1
I0
I0
tI1
tp2515
F-4.1151789075809981
s((I0
I3
I1
I1
I0
I0
I0
I1
tI7
tp2516
I-100
s((I1
I1
I1
I0
I0
I3
I1
I0
tI1
tp2517
I-100
s((I0
I0
I1
I1
I0
I1
I1
I3
tI3
tp2518
I-100
s((I1
I1
I1
I0
I3
I0
I1
I1
tI7
tp2519
I-100
s((I2
I0
I1
I0
I3
I0
I0
I1
tI3
tp2520
I-100
s((I1
I1
I1
I0
I1
I1
I0
I1
tI4
tp2521
F-18.846598510340129
s((I1
I1
I3
I1
I0
I0
I2
I0
tI7
tp2522
I-100
s((I1
I2
I0
I0
I1
I3
I1
I1
tI6
tp2523
I50
s((I1
I0
I0
I1
I1
I1
I3
I1
tI6
tp2524
F-10
s((I1
I0
I3
I1
I0
I1
I0
I1
tI4
tp2525
I-100
s((I3
I0
I0
I0
I0
I1
I0
I0
tI7
tp2526
I-100
s((I0
I0
I0
I0
I3
I1
I1
I0
tI6
tp2527
I-100
s((I1
I0
I0
I1
I1
I1
I0
I1
tI4
tp2528
F-3.9310746434517996
s((I1
I1
I0
I3
I0
I0
I0
I1
tI1
tp2529
I-100
s((I1
I0
I0
I0
I1
I1
I0
I3
tI7
tp2530
I-100
s((I0
I1
I1
I0
I1
I1
I3
I1
tI6
tp2531
I-100
s((I1
I0
I3
I1
I0
I1
I0
I0
tI6
tp2532
I-100
s((I1
I3
I1
I0
I0
I0
I1
I0
tI0
tp2533
I-100
s((I3
I1
I1
I2
I0
I0
I1
I0
tI5
tp2534
I-100
s((I1
I0
I2
I0
I1
I1
I1
I1
tI2
tp2535
I-1
s((I1
I0
I0
I3
I1
I1
I1
I1
tI0
tp2536
I-100
s((I1
I0
I3
I1
I0
I1
I1
I0
tI1
tp2537
I-100
s((I1
I0
I0
I0
I0
I1
I1
I1
tI1
tp2538
F-4.4134706226943248
s((I1
I0
I0
I1
I0
I0
I0
I1
tI7
tp2539
F-1.6701976347001004
s((I0
I0
I1
I0
I2
I0
I1
I1
tI0
tp2540
I-1
s((I1
I1
I1
I0
I0
I3
I1
I0
tI0
tp2541
I-100
s((I1
I1
I0
I0
I0
I0
I0
I1
tI7
tp2542
F-2.4406283915520226
s((I1
I1
I1
I0
I1
I1
I0
I3
tI5
tp2543
I-100
s((I0
I3
I1
I1
I0
I0
I0
I1
tI0
tp2544
I-100
s((I1
I1
I1
I3
I0
I0
I1
I0
tI2
tp2545
I-100
s((I0
I0
I0
I0
I0
I1
I1
I3
tI6
tp2546
F-4.7817491447795204
s((I1
I1
I0
I1
I0
I3
I0
I0
tI1
tp2547
I-100
s((I1
I1
I1
I0
I3
I0
I1
I1
tI0
tp2548
F-4.6867601073953669
s((I1
I1
I3
I1
I2
I0
I0
I1
tI0
tp2549
I-100
s((I1
I1
I3
I1
I2
I0
I0
I1
tI1
tp2550
I-1
s((I1
I1
I1
I3
I1
I1
I0
I1
tI4
tp2551
F-100.97013624760257
s((I0
I0
I0
I0
I1
I1
I3
I0
tI3
tp2552
I-100
s((I1
I0
I3
I0
I0
I1
I1
I1
tI3
tp2553
I-100
s((I1
I1
I1
I0
I1
I1
I0
I0
tI5
tp2554
F-2.7584589130243726
s((I0
I0
I1
I1
I3
I0
I0
I1
tI5
tp2555
I-100
s((I1
I1
I3
I0
I2
I1
I1
I1
tI2
tp2556
I-100
s((I3
I0
I2
I1
I0
I1
I1
I1
tI6
tp2557
I-100
s((I3
I1
I0
I0
I0
I1
I0
I1
tI1
tp2558
I-100
s((I0
I0
I2
I0
I1
I1
I0
I3
tI2
tp2559
I-100
s((I0
I0
I0
I2
I1
I1
I0
I0
tI1
tp2560
I-1
s((I1
I0
I1
I0
I1
I0
I0
I1
tI0
tp2561
F-11.969887345374415
s((I0
I0
I0
I0
I1
I0
I1
I1
tI6
tp2562
F-2.0037005822052918
s((I0
I0
I0
I0
I3
I1
I1
I0
tI1
tp2563
I-100
s((I0
I1
I2
I0
I0
I1
I3
I1
tI7
tp2564
I-1
s((I1
I0
I0
I0
I3
I1
I1
I0
tI4
tp2565
I-100
s((I1
I2
I1
I0
I1
I3
I1
I1
tI6
tp2566
F49.774222703962174
s((I1
I0
I0
I3
I1
I1
I0
I0
tI7
tp2567
I-100
s((I1
I1
I1
I0
I2
I1
I1
I1
tI4
tp2568
F49.786379015453001
s((I1
I0
I2
I0
I1
I3
I1
I1
tI6
tp2569
I-1
s((I1
I1
I1
I3
I0
I1
I1
I0
tI0
tp2570
I-100
s((I0
I3
I1
I1
I2
I0
I0
I1
tI5
tp2571
I-100
s((I3
I0
I0
I0
I0
I1
I1
I0
tI4
tp2572
F-3.6645340217582776
s((I1
I0
I1
I1
I0
I1
I0
I2
tI3
tp2573
I50
s((I0
I1
I0
I3
I2
I0
I1
I0
tI4
tp2574
I50
s((I1
I1
I3
I1
I0
I0
I2
I1
tI0
tp2575
I-100
s((I1
I1
I1
I0
I1
I1
I0
I0
tI2
tp2576
F-8.9086139627648446
s((I1
I0
I1
I1
I0
I1
I0
I0
tI1
tp2577
F-2.4431937130315236
s((I1
I1
I0
I1
I0
I3
I0
I0
tI6
tp2578
I-100
s((I1
I0
I0
I0
I0
I1
I1
I0
tI5
tp2579
F-11.640718666415864
s((I1
I1
I1
I3
I1
I1
I0
I1
tI3
tp2580
F-100.16883084130271
s((I0
I0
I1
I1
I3
I0
I0
I1
tI2
tp2581
I-100
s((I0
I0
I1
I2
I0
I0
I1
I1
tI4
tp2582
I-1
s((I0
I0
I0
I2
I1
I1
I0
I0
tI6
tp2583
I-1
s((I0
I1
I0
I3
I0
I1
I1
I1
tI2
tp2584
I-100
s((I0
I1
I1
I0
I2
I3
I1
I0
tI1
tp2585
I-100
s((I3
I1
I0
I2
I0
I1
I0
I1
tI3
tp2586
I-100
s((I1
I2
I1
I1
I1
I0
I0
I1
tI5
tp2587
I-1
s((I1
I0
I1
I1
I0
I1
I1
I1
tI4
tp2588
F-12.506160640255185
s((I1
I2
I1
I0
I0
I0
I1
I3
tI2
tp2589
I-100
s((I1
I0
I1
I1
I3
I1
I1
I1
tI6
tp2590
I-100
s((I3
I1
I2
I0
I0
I0
I1
I0
tI7
tp2591
I-100
s((I0
I1
I3
I0
I0
I0
I1
I2
tI3
tp2592
F49.56867074913599
s((I2
I0
I1
I1
I0
I3
I0
I1
tI5
tp2593
I-100
s((I0
I0
I1
I1
I0
I3
I0
I1
tI6
tp2594
F-4.7692997007884799
s((I0
I1
I0
I0
I2
I3
I1
I0
tI4
tp2595
I50
s((I1
I0
I1
I0
I1
I0
I0
I1
tI3
tp2596
F-10.774505192428682
s((I1
I1
I3
I1
I0
I0
I0
I1
tI1
tp2597
F-4.5227010904396137
s((I1
I0
I0
I1
I0
I0
I3
I1
tI6
tp2598
F-4.7134965743096231
s((I3
I1
I0
I0
I0
I0
I0
I0
tI6
tp2599
I-100
s((I3
I0
I0
I1
I1
I0
I0
I1
tI3
tp2600
I-100
s((I1
I0
I1
I0
I0
I2
I1
I3
tI2
tp2601
I-100
s((I3
I0
I1
I1
I0
I1
I0
I0
tI2
tp2602
F-7.4413835676312665
s((I3
I1
I2
I0
I0
I1
I0
I1
tI3
tp2603
I-100
s((I1
I3
I1
I0
I1
I0
I1
I1
tI6
tp2604
I-100
s((I0
I2
I1
I1
I0
I1
I0
I3
tI7
tp2605
I-1
s((I1
I0
I2
I0
I1
I1
I0
I0
tI0
tp2606
I-1
s((I1
I1
I0
I3
I2
I1
I1
I1
tI4
tp2607
F39.410549109306409
s((I0
I1
I1
I2
I1
I0
I0
I0
tI7
tp2608
I-1
s((I0
I0
I3
I1
I1
I0
I2
I0
tI7
tp2609
I-1
s((I0
I1
I1
I2
I0
I0
I1
I0
tI3
tp2610
I-100
s((I0
I0
I1
I0
I0
I3
I1
I1
tI3
tp2611
I-100
s((I1
I0
I3
I0
I1
I0
I1
I1
tI0
tp2612
F-4.1320888383081691
s((I2
I1
I1
I0
I0
I1
I3
I1
tI7
tp2613
I50
s((I0
I0
I1
I2
I0
I0
I1
I1
tI3
tp2614
I-1
s((I1
I1
I0
I1
I0
I0
I0
I1
tI3
tp2615
F-1.4000005767062871
s((I1
I3
I2
I0
I1
I0
I1
I1
tI7
tp2616
I-100
s((I1
I1
I0
I1
I1
I1
I1
I1
tI3
tp2617
I-1
s((I1
I0
I3
I1
I2
I0
I0
I1
tI7
tp2618
I-100
s((I1
I1
I0
I0
I0
I1
I1
I1
tI5
tp2619
F-11.3333412060739
s((I0
I0
I3
I1
I1
I0
I2
I1
tI7
tp2620
I-1
s((I1
I1
I1
I0
I0
I0
I1
I1
tI4
tp2621
F-2.8575910019997535
s((I1
I1
I1
I3
I1
I1
I0
I0
tI1
tp2622
I-100
s((I3
I1
I2
I0
I0
I0
I0
I0
tI3
tp2623
I-1
s((I3
I1
I1
I0
I0
I1
I1
I1
tI0
tp2624
I-100
s((I2
I0
I1
I1
I1
I1
I3
I1
tI4
tp2625
I-100
s((I0
I0
I3
I1
I1
I0
I0
I2
tI2
tp2626
I-1
s((I1
I0
I0
I1
I3
I2
I0
I1
tI5
tp2627
I-100
s((I1
I0
I1
I1
I1
I3
I0
I1
tI7
tp2628
I-100
s((I1
I1
I1
I0
I3
I0
I0
I1
tI4
tp2629
I-100
s((I0
I0
I0
I1
I1
I0
I0
I3
tI3
tp2630
I-100
s((I0
I0
I1
I0
I2
I0
I0
I1
tI7
tp2631
I-1
s((I0
I3
I0
I1
I1
I0
I2
I1
tI3
tp2632
I-100
s((I1
I0
I1
I0
I1
I3
I1
I1
tI6
tp2633
F-4.5276165496140361
s((I1
I1
I1
I0
I3
I2
I1
I1
tI0
tp2634
I-1
s((I3
I1
I1
I0
I1
I1
I0
I1
tI2
tp2635
F-4.9386666872219189
s((I1
I1
I1
I3
I2
I1
I1
I0
tI1
tp2636
I-100
s((I1
I0
I3
I2
I1
I1
I0
I0
tI6
tp2637
I-100
s((I1
I1
I1
I0
I0
I0
I1
I1
tI3
tp2638
F-2.7861422641709366
s((I0
I3
I1
I0
I0
I2
I1
I1
tI5
tp2639
I-100
s((I3
I1
I2
I0
I0
I0
I0
I0
tI0
tp2640
I-100
s((I1
I1
I3
I0
I0
I0
I0
I1
tI1
tp2641
F-3.8237988611533407
s((I1
I0
I1
I1
I3
I1
I2
I1
tI7
tp2642
I-100
s((I3
I0
I0
I0
I1
I1
I0
I2
tI2
tp2643
I-1
s((I0
I1
I1
I0
I1
I1
I3
I1
tI5
tp2644
I-100
s((I0
I0
I0
I1
I1
I0
I0
I1
tI6
tp2645
F-11.306835799397801
s((I1
I1
I1
I0
I1
I1
I0
I3
tI7
tp2646
I-100
s((I0
I0
I0
I1
I3
I1
I1
I1
tI1
tp2647
I-100
s((I1
I2
I0
I1
I1
I1
I0
I3
tI7
tp2648
I-100
s((I0
I2
I0
I1
I3
I1
I1
I1
tI7
tp2649
I-1
s((I1
I0
I3
I0
I1
I2
I1
I1
tI4
tp2650
I-100
s((I1
I1
I1
I0
I0
I0
I0
I0
tI1
tp2651
F-3.5878145521799363
s((I1
I0
I1
I0
I0
I0
I1
I3
tI0
tp2652
F-3.7812730142489368
s((I1
I1
I3
I1
I0
I0
I0
I1
tI2
tp2653
F-4.4839066808079906
s((I0
I2
I0
I0
I1
I1
I3
I0
tI3
tp2654
I-100
s((I0
I1
I0
I3
I0
I1
I1
I1
tI5
tp2655
F-4.2928148255983265
s((I1
I0
I0
I3
I0
I1
I1
I1
tI1
tp2656
I-100
s((I1
I1
I1
I0
I0
I0
I0
I1
tI5
tp2657
F-10.224620290000001
s((I1
I0
I1
I3
I1
I0
I0
I1
tI7
tp2658
F-100.42986156116525
s((I0
I0
I3
I0
I0
I1
I0
I0
tI7
tp2659
F-5.3079664307187571
s((I0
I0
I3
I0
I1
I1
I0
I2
tI2
tp2660
I-1
s((I1
I3
I1
I1
I1
I1
I0
I1
tI1
tp2661
I-100
s((I0
I0
I2
I0
I0
I1
I1
I0
tI4
tp2662
I-1
s((I1
I0
I0
I1
I0
I1
I1
I3
tI0
tp2663
I-100
s((I0
I0
I1
I1
I0
I0
I0
I1
tI2
tp2664
I-100
s((I0
I1
I3
I0
I0
I0
I0
I0
tI5
tp2665
I-100
s((I0
I0
I0
I1
I1
I3
I0
I2
tI3
tp2666
F48.941560575695917
s((I1
I1
I3
I0
I0
I0
I0
I1
tI6
tp2667
I-100
s((I1
I3
I1
I1
I2
I1
I0
I1
tI4
tp2668
I-100
s((I0
I0
I1
I1
I0
I1
I0
I0
tI0
tp2669
F-2.580206312644358
s((I2
I1
I1
I0
I3
I1
I1
I1
tI4
tp2670
I-100
s((I1
I0
I0
I1
I0
I1
I3
I1
tI2
tp2671
I-100
s((I2
I1
I0
I0
I0
I0
I3
I0
tI7
tp2672
I50
s((I0
I0
I0
I0
I0
I1
I1
I0
tI1
tp2673
F-2.3074199204659553
s((I1
I1
I1
I0
I0
I1
I1
I3
tI1
tp2674
I-100
s((I1
I1
I1
I0
I0
I0
I1
I0
tI1
tp2675
F-11.349172955411021
s((I0
I1
I1
I3
I0
I0
I1
I0
tI1
tp2676
I-100
s((I0
I3
I1
I0
I0
I0
I0
I1
tI7
tp2677
I-100
s((I1
I0
I3
I1
I0
I1
I1
I0
tI2
tp2678
I-100
s((I1
I1
I1
I0
I0
I0
I0
I3
tI6
tp2679
I-100
s((I0
I1
I1
I0
I0
I3
I1
I0
tI3
tp2680
F-4.2562097729346835
s((I1
I0
I0
I1
I0
I1
I3
I0
tI0
tp2681
I-100
s((I2
I0
I0
I1
I1
I3
I0
I0
tI7
tp2682
F49.577707940828802
s((I1
I1
I1
I0
I0
I1
I1
I0
tI4
tp2683
F-11.523081153639955
s((I1
I0
I0
I3
I0
I1
I1
I0
tI7
tp2684
I-100
s((I1
I0
I1
I1
I1
I1
I0
I1
tI1
tp2685
F-3.1987847623923198
s((I1
I0
I0
I3
I2
I1
I1
I0
tI2
tp2686
I-100
s((I0
I1
I0
I0
I0
I1
I0
I1
tI4
tp2687
F-2.4815010107332287
s((I0
I1
I1
I0
I1
I0
I3
I0
tI6
tp2688
I-100
s((I1
I1
I3
I1
I0
I0
I0
I0
tI4
tp2689
I-100
s((I0
I1
I0
I0
I2
I0
I1
I1
tI7
tp2690
I-1
s((I3
I1
I1
I0
I1
I0
I0
I2
tI3
tp2691
F49.719095824058691
s((I1
I0
I0
I0
I1
I1
I0
I3
tI6
tp2692
F-4.6052727348143661
s((I0
I0
I3
I0
I1
I0
I1
I1
tI7
tp2693
F-5.1965759152002482
s((I1
I0
I0
I1
I0
I1
I1
I2
tI4
tp2694
I-1
s((I0
I0
I1
I0
I1
I0
I0
I1
tI4
tp2695
F-3.978744734903843
s((I2
I0
I1
I1
I0
I1
I1
I0
tI6
tp2696
I-1
s((I3
I1
I0
I0
I0
I0
I1
I1
tI2
tp2697
I-100
s((I1
I0
I3
I1
I0
I1
I0
I0
tI1
tp2698
I-100
s((I0
I1
I0
I0
I0
I3
I1
I1
tI5
tp2699
F-4.8240504918969984
s((I0
I0
I1
I0
I1
I1
I1
I1
tI0
tp2700
F-17.213454534456005
s((I0
I0
I3
I0
I1
I1
I0
I0
tI7
tp2701
F-4.3023556568571628
s((I1
I1
I0
I0
I0
I0
I2
I1
tI1
tp2702
I-1
s((I1
I0
I1
I2
I0
I0
I1
I3
tI1
tp2703
I-1
s((I1
I0
I0
I1
I0
I1
I3
I1
tI5
tp2704
F-1
s((I1
I0
I3
I1
I1
I1
I0
I0
tI1
tp2705
I-100
s((I3
I1
I1
I0
I0
I0
I1
I0
tI2
tp2706
I-100
s((I1
I0
I2
I3
I1
I1
I1
I1
tI5
tp2707
I50
s((I0
I1
I1
I0
I0
I1
I3
I1
tI2
tp2708
I-100
s((I3
I0
I1
I1
I1
I1
I0
I1
tI3
tp2709
I-100
s((I1
I0
I1
I1
I1
I1
I0
I0
tI4
tp2710
F-4.899800322223145
s((I1
I0
I0
I1
I0
I1
I0
I3
tI2
tp2711
I-100
s((I0
I1
I2
I0
I0
I0
I1
I3
tI6
tp2712
I-100
s((I1
I1
I1
I1
I0
I0
I0
I0
tI0
tp2713
F-2.1870330932073552
s((I0
I0
I1
I1
I3
I1
I0
I0
tI3
tp2714
I-100
s((I1
I0
I1
I1
I1
I1
I0
I3
tI2
tp2715
I-100
s((I1
I1
I0
I1
I0
I3
I0
I1
tI0
tp2716
I-100
s((I0
I0
I0
I1
I1
I0
I0
I0
tI7
tp2717
I-100
s((I1
I0
I1
I1
I1
I0
I0
I1
tI6
tp2718
F-11.956629679980983
s((I1
I0
I3
I1
I0
I0
I0
I1
tI6
tp2719
I-100
s((I1
I0
I1
I1
I1
I1
I0
I1
tI6
tp2720
F-12.475663034188536
s((I1
I0
I1
I1
I3
I1
I0
I1
tI1
tp2721
F-100.14271608456581
s((I0
I1
I0
I0
I0
I0
I1
I3
tI4
tp2722
I-100
s((I1
I0
I1
I3
I0
I0
I1
I0
tI0
tp2723
I-100
s((I1
I0
I1
I1
I0
I1
I0
I1
tI6
tp2724
F-2.8224746282882553
s((I1
I1
I1
I2
I3
I0
I1
I1
tI0
tp2725
F48.957905450036492
s((I0
I3
I0
I0
I0
I1
I0
I0
tI1
tp2726
I-100
s((I1
I0
I2
I3
I0
I1
I1
I0
tI0
tp2727
I-100
s((I0
I1
I1
I2
I1
I0
I0
I0
tI3
tp2728
I-1
s((I1
I0
I0
I0
I0
I1
I1
I3
tI7
tp2729
I-100
s((I0
I3
I1
I0
I0
I0
I1
I1
tI7
tp2730
I-100
s((I0
I1
I1
I0
I1
I0
I0
I3
tI0
tp2731
F-4.984226490252567
s((I0
I0
I0
I0
I1
I1
I0
I0
tI2
tp2732
F-10.990000000000002
s((I0
I0
I0
I0
I1
I1
I0
I3
tI7
tp2733
F-4.5620268394333339
s((I0
I0
I1
I1
I0
I1
I1
I0
tI7
tp2734
F-11.175903100000001
s((I3
I0
I0
I0
I1
I1
I0
I0
tI7
tp2735
I-100
s((I0
I2
I0
I0
I1
I3
I1
I1
tI6
tp2736
I50
s((I2
I0
I1
I0
I0
I3
I1
I1
tI3
tp2737
I-100
s((I1
I0
I0
I1
I1
I1
I0
I0
tI1
tp2738
F-1.5266786553910001
s((I1
I1
I1
I3
I0
I1
I1
I1
tI1
tp2739
I-100
s((I0
I3
I0
I1
I0
I1
I1
I1
tI1
tp2740
F-101.4114382787935
s((I0
I1
I3
I0
I0
I2
I0
I0
tI3
tp2741
I-1
s((I0
I0
I1
I1
I2
I1
I1
I3
tI0
tp2742
I-100
s((I2
I0
I3
I1
I0
I1
I1
I1
tI2
tp2743
I-100
s((I0
I0
I1
I1
I0
I1
I0
I3
tI0
tp2744
I-100
s((I1
I0
I0
I2
I0
I1
I1
I0
tI3
tp2745
I-1
s((I1
I3
I0
I0
I1
I0
I1
I1
tI0
tp2746
I-100
s((I1
I1
I1
I3
I0
I1
I0
I0
tI3
tp2747
F-2.6081487972171091
s((I1
I1
I1
I0
I0
I3
I1
I1
tI1
tp2748
I-100
s((I0
I0
I1
I0
I0
I0
I1
I1
tI7
tp2749
I-100
s((I1
I1
I0
I1
I3
I0
I0
I1
tI1
tp2750
F-4.0450993631139225
s((I1
I1
I1
I1
I0
I0
I0
I3
tI4
tp2751
I-100
s((I1
I0
I1
I1
I1
I1
I3
I0
tI3
tp2752
I-100
s((I1
I1
I0
I1
I1
I1
I1
I1
tI4
tp2753
I-1
s((I0
I1
I1
I0
I1
I1
I0
I1
tI0
tp2754
F-11.083920378117117
s((I0
I3
I2
I1
I1
I0
I0
I1
tI7
tp2755
I-100
s((I0
I3
I1
I1
I1
I1
I0
I1
tI5
tp2756
I-100
s((I1
I3
I1
I1
I1
I1
I2
I0
tI4
tp2757
I-100
s((I1
I1
I0
I1
I0
I2
I0
I1
tI6
tp2758
I-1
s((I1
I1
I1
I1
I0
I1
I3
I1
tI7
tp2759
F-100.9653815711813
s((I0
I1
I3
I2
I0
I0
I1
I0
tI1
tp2760
I-1
s((I0
I0
I1
I1
I0
I1
I0
I2
tI5
tp2761
I-1
s((I1
I0
I1
I1
I1
I1
I2
I1
tI7
tp2762
I-1
s((I0
I0
I0
I0
I0
I1
I2
I0
tI6
tp2763
I-1
s((I1
I0
I3
I0
I1
I0
I1
I1
tI4
tp2764
I-100
s((I0
I1
I1
I0
I1
I3
I0
I0
tI0
tp2765
I-100
s((I1
I1
I1
I0
I0
I1
I0
I0
tI6
tp2766
F-3.2301332194076959
s((I2
I0
I0
I1
I3
I1
I1
I1
tI2
tp2767
I-100
s((I0
I0
I3
I1
I1
I0
I0
I0
tI1
tp2768
F-3.5616188813482541
s((I0
I3
I1
I1
I0
I1
I0
I0
tI3
tp2769
F-4.7249328777684179
s((I0
I3
I1
I0
I1
I1
I1
I1
tI4
tp2770
F-101.12295381696043
s((I3
I1
I1
I0
I1
I0
I0
I0
tI4
tp2771
I-100
s((I2
I0
I1
I1
I1
I1
I0
I1
tI2
tp2772
I-1
s((I0
I3
I1
I0
I1
I0
I0
I1
tI0
tp2773
I-100
s((I1
I1
I1
I3
I2
I0
I1
I0
tI3
tp2774
I-1
s((I0
I0
I1
I1
I1
I1
I0
I1
tI2
tp2775
F-11.078290000000001
s((I1
I0
I0
I1
I3
I1
I1
I0
tI5
tp2776
I-100
s((I1
I0
I1
I1
I0
I1
I3
I1
tI6
tp2777
F-4.393038369864124
s((I1
I0
I0
I0
I0
I1
I1
I3
tI0
tp2778
F-4.6218074056981964
s((I1
I1
I1
I0
I0
I1
I1
I3
tI5
tp2779
I-100
s((I1
I0
I1
I1
I1
I1
I3
I0
tI1
tp2780
I-100
s((I3
I1
I0
I0
I0
I0
I1
I2
tI2
tp2781
I-100
s((I3
I0
I1
I1
I0
I1
I1
I0
tI1
tp2782
I-100
s((I1
I1
I0
I2
I0
I1
I1
I1
tI3
tp2783
I-1
s((I1
I2
I1
I1
I1
I1
I3
I0
tI1
tp2784
I-100
s((I1
I0
I3
I2
I1
I1
I1
I1
tI0
tp2785
I50
s((I1
I0
I1
I0
I1
I0
I1
I1
tI0
tp2786
I-100
s((I1
I3
I1
I1
I0
I1
I1
I1
tI1
tp2787
F-101.10446658600071
s((I1
I2
I1
I1
I1
I1
I0
I3
tI1
tp2788
I-100
s((I1
I0
I0
I1
I3
I0
I0
I1
tI5
tp2789
I-100
s((I0
I1
I1
I0
I0
I1
I0
I1
tI5
tp2790
F-1.5266786553910001
s((I1
I1
I0
I0
I3
I0
I0
I1
tI5
tp2791
I-100
s((I1
I0
I0
I1
I0
I1
I3
I0
tI1
tp2792
I-100
s((I0
I0
I0
I1
I1
I3
I0
I1
tI3
tp2793
I-100
s((I1
I2
I0
I0
I1
I0
I1
I1
tI2
tp2794
I-1
s((I1
I1
I1
I2
I0
I1
I1
I3
tI5
tp2795
I-100
s((I3
I0
I1
I1
I0
I0
I0
I1
tI1
tp2796
F-3.9937830577933977
s((I1
I0
I1
I1
I2
I1
I1
I1
tI0
tp2797
I-1
s((I1
I1
I1
I0
I0
I2
I1
I3
tI1
tp2798
F48.302796652589571
s((I3
I0
I1
I1
I1
I1
I2
I1
tI1
tp2799
I-100
s((I1
I0
I0
I1
I1
I1
I0
I3
tI4
tp2800
I-100
s((I1
I3
I1
I1
I1
I1
I0
I0
tI5
tp2801
I-100
s((I0
I3
I0
I1
I1
I0
I0
I1
tI1
tp2802
F-5.0307460293461981
s((I0
I3
I1
I1
I0
I1
I0
I0
tI4
tp2803
I-100
s((I2
I1
I1
I0
I1
I0
I0
I3
tI7
tp2804
F49.116427124457751
s((I1
I1
I1
I0
I0
I1
I1
I1
tI6
tp2805
F-3.0065852093534855
s((I1
I0
I0
I1
I3
I1
I0
I1
tI6
tp2806
F-100.17227606060455
s((I1
I1
I1
I0
I0
I3
I1
I2
tI3
tp2807
I50
s((I1
I3
I0
I1
I0
I0
I0
I1
tI1
tp2808
I-1
s((I3
I0
I2
I0
I1
I1
I0
I0
tI3
tp2809
I-1
s((I1
I1
I1
I3
I0
I1
I1
I2
tI7
tp2810
I-100
s((I1
I1
I0
I1
I0
I3
I0
I2
tI6
tp2811
I-100
s((I1
I1
I1
I0
I3
I1
I1
I1
tI3
tp2812
I-100
s((I0
I1
I0
I0
I3
I0
I1
I1
tI0
tp2813
F-10
s((I3
I1
I0
I0
I0
I0
I0
I2
tI0
tp2814
I-100
s((I1
I1
I1
I0
I0
I1
I1
I2
tI4
tp2815
I-1
s((I0
I0
I1
I1
I3
I1
I0
I0
tI4
tp2816
I-100
s((I2
I1
I1
I0
I0
I3
I1
I0
tI3
tp2817
I-1
s((I1
I1
I1
I0
I0
I2
I0
I3
tI7
tp2818
I-100
s((I1
I3
I1
I0
I1
I2
I0
I1
tI7
tp2819
I-100
s((I1
I2
I1
I1
I1
I1
I3
I1
tI0
tp2820
I-100
s((I0
I1
I1
I0
I0
I1
I0
I1
tI2
tp2821
F-1.6050998532369045
s((I0
I3
I0
I1
I1
I0
I0
I0
tI4
tp2822
I-100
s((I1
I0
I0
I1
I1
I1
I3
I0
tI6
tp2823
F-4.5480150722750494
s((I1
I0
I2
I1
I0
I1
I3
I0
tI3
tp2824
I-100
s((I0
I1
I0
I0
I3
I1
I1
I1
tI4
tp2825
I-100
s((I3
I0
I1
I0
I1
I0
I0
I1
tI2
tp2826
F-10
s((I1
I0
I0
I1
I0
I1
I1
I0
tI2
tp2827
F-3.0372060985262457
s((I1
I0
I3
I0
I0
I1
I1
I1
tI6
tp2828
I-100
s((I0
I1
I3
I2
I0
I1
I0
I1
tI7
tp2829
I-1
s((I0
I3
I0
I1
I1
I0
I0
I1
tI6
tp2830
I-100
s((I1
I0
I3
I1
I1
I1
I0
I0
tI6
tp2831
I-100
s((I1
I1
I1
I1
I0
I1
I0
I1
tI2
tp2832
I-100
s((I0
I0
I1
I0
I0
I0
I0
I1
tI4
tp2833
F-11.216734389999999
s((I1
I1
I3
I1
I0
I0
I2
I1
tI1
tp2834
I-1
s((I1
I1
I1
I0
I0
I0
I1
I3
tI1
tp2835
F-2.3828571317696392
s((I2
I1
I0
I0
I0
I3
I1
I1
tI1
tp2836
I-100
s((I2
I0
I1
I0
I0
I3
I1
I1
tI4
tp2837
I-1
s((I1
I1
I1
I1
I3
I0
I0
I0
tI7
tp2838
I-100
s((I1
I0
I0
I3
I1
I0
I1
I1
tI2
tp2839
I-100
s((I3
I0
I1
I1
I2
I0
I0
I1
tI5
tp2840
I-100
s((I0
I0
I1
I1
I2
I3
I0
I1
tI4
tp2841
I50
s((I0
I1
I2
I3
I0
I1
I1
I1
tI1
tp2842
I-100
s((I0
I3
I1
I0
I1
I2
I0
I1
tI7
tp2843
I-100
s((I0
I0
I3
I1
I1
I0
I0
I1
tI4
tp2844
I-100
s((I1
I0
I3
I1
I1
I1
I2
I1
tI7
tp2845
I-100
s((I1
I1
I1
I0
I0
I0
I3
I1
tI3
tp2846
F-100.24834102953825
s((I1
I0
I0
I0
I3
I1
I1
I0
tI6
tp2847
I-100
s((I0
I1
I1
I0
I1
I2
I0
I0
tI6
tp2848
I-1
s((I3
I1
I0
I0
I0
I1
I1
I1
tI0
tp2849
I-100
s((I1
I1
I2
I3
I0
I0
I0
I1
tI7
tp2850
I-100
s((I1
I1
I0
I3
I0
I1
I1
I1
tI3
tp2851
I-100
s((I1
I1
I0
I0
I3
I1
I1
I1
tI0
tp2852
F-3.7442160623945662
s((I0
I1
I1
I0
I0
I0
I1
I3
tI3
tp2853
I-100
s((I1
I1
I0
I0
I0
I2
I0
I1
tI1
tp2854
I50
s((I0
I1
I1
I0
I0
I1
I1
I1
tI4
tp2855
F-2.7371704661989984
s((I0
I0
I1
I0
I3
I0
I0
I1
tI7
tp2856
F-5.3964761289184908
s((I1
I1
I1
I0
I0
I0
I0
I3
tI3
tp2857
I-100
s((I1
I2
I0
I1
I0
I1
I0
I0
tI7
tp2858
I-1
s((I0
I0
I0
I1
I1
I3
I0
I0
tI4
tp2859
I-100
s((I0
I1
I3
I0
I0
I0
I1
I0
tI2
tp2860
I-100
s((I0
I0
I0
I0
I3
I1
I1
I2
tI3
tp2861
I-100
s((I0
I1
I2
I0
I0
I1
I3
I1
tI1
tp2862
I-100
s((I3
I0
I0
I1
I1
I0
I0
I1
tI2
tp2863
F-4.5001743827496323
s((I1
I1
I1
I0
I0
I1
I0
I3
tI3
tp2864
I-100
s((I0
I1
I3
I0
I0
I0
I0
I2
tI3
tp2865
I50
s((I1
I1
I0
I3
I0
I0
I0
I1
tI2
tp2866
I-100
s((I2
I0
I1
I3
I0
I0
I1
I1
tI2
tp2867
I-100
s((I1
I0
I0
I1
I0
I3
I0
I1
tI0
tp2868
I-100
s((I3
I1
I0
I0
I0
I2
I1
I1
tI6
tp2869
I-100
s((I0
I0
I1
I3
I0
I0
I1
I1
tI4
tp2870
F-4.4862176105077349
s((I1
I1
I1
I3
I2
I1
I1
I1
tI5
tp2871
I-100
s((I0
I1
I3
I0
I0
I1
I0
I1
tI0
tp2872
F-3.4749189024806308
s((I0
I0
I1
I0
I0
I3
I0
I1
tI4
tp2873
F-4.2165705318480233
s((I3
I0
I0
I0
I1
I1
I0
I0
tI2
tp2874
F-4.2557914767427487
s((I3
I0
I0
I1
I1
I0
I0
I0
tI2
tp2875
F-4.2334781280644949
s((I1
I1
I2
I3
I0
I1
I1
I1
tI4
tp2876
I-1
s((I0
I1
I0
I0
I0
I1
I3
I1
tI3
tp2877
I-100
s((I1
I0
I3
I0
I0
I1
I1
I0
tI5
tp2878
I-100
s((I0
I1
I0
I0
I3
I0
I1
I0
tI0
tp2879
F-4.8575063891058532
s((I1
I3
I0
I1
I0
I1
I1
I0
tI7
tp2880
I-100
s((I3
I2
I1
I1
I0
I1
I1
I0
tI7
tp2881
I-100
s((I0
I2
I0
I1
I1
I3
I0
I1
tI3
tp2882
I-100
s((I0
I0
I0
I0
I0
I1
I1
I3
tI7
tp2883
F-4.8047376928269419
s((I0
I1
I1
I0
I0
I0
I1
I3
tI4
tp2884
I-100
s((I2
I0
I0
I0
I1
I1
I0
I3
tI5
tp2885
I-1
s((I1
I1
I1
I2
I0
I1
I0
I3
tI4
tp2886
I-100
s((I0
I3
I1
I1
I0
I1
I1
I0
tI2
tp2887
I-100
s((I1
I1
I1
I0
I2
I0
I1
I1
tI0
tp2888
I-1
s((I0
I1
I0
I2
I3
I0
I1
I1
tI6
tp2889
I-100
s((I1
I0
I1
I0
I0
I0
I1
I0
tI7
tp2890
F-1.6310544235404068
s((I3
I1
I1
I0
I2
I0
I1
I0
tI1
tp2891
I-1
s((I1
I1
I1
I3
I0
I0
I0
I0
tI1
tp2892
I-100
s((I0
I1
I1
I0
I3
I1
I1
I1
tI4
tp2893
I-100
s((I0
I0
I1
I0
I3
I0
I1
I1
tI7
tp2894
F-4.5806441392979211
s((I0
I1
I0
I2
I0
I1
I1
I1
tI1
tp2895
I-1
s((I1
I0
I3
I0
I1
I1
I1
I1
tI7
tp2896
I-100
s((I1
I3
I1
I1
I0
I1
I1
I1
tI7
tp2897
F-101.13781579032083
s((I1
I3
I1
I1
I1
I1
I0
I2
tI0
tp2898
I-100
s((I1
I0
I3
I0
I0
I1
I1
I0
tI2
tp2899
I-100
s((I0
I0
I1
I1
I0
I1
I0
I3
tI5
tp2900
I-100
s((I1
I1
I1
I1
I0
I0
I0
I2
tI6
tp2901
I-1
s((I0
I1
I0
I3
I0
I0
I1
I0
tI0
tp2902
I-100
s((I0
I1
I1
I0
I1
I0
I0
I0
tI6
tp2903
F-2.1538080909339814
s((I0
I2
I0
I1
I1
I3
I0
I1
tI4
tp2904
I-100
s((I1
I0
I1
I0
I0
I2
I1
I3
tI4
tp2905
I-100
s((I0
I1
I0
I0
I0
I0
I1
I1
tI6
tp2906
F-2.8456827240858109
s((I1
I0
I0
I0
I1
I1
I1
I1
tI7
tp2907
F-1.9041742244930431
s((I1
I3
I1
I1
I0
I1
I0
I0
tI1
tp2908
I-100
s((I0
I3
I1
I1
I0
I1
I0
I2
tI3
tp2909
I50
s((I0
I0
I0
I2
I0
I1
I1
I3
tI6
tp2910
I-1
s((I1
I0
I0
I0
I1
I0
I1
I1
tI5
tp2911
F-1.5691716030481839
s((I1
I0
I3
I1
I1
I1
I0
I1
tI1
tp2912
I-100
s((I2
I1
I1
I0
I0
I1
I0
I1
tI6
tp2913
I-1
s((I1
I1
I0
I1
I2
I3
I0
I1
tI7
tp2914
I-100
s((I1
I3
I1
I1
I0
I1
I0
I1
tI5
tp2915
I-100
s((I0
I1
I0
I0
I0
I0
I0
I0
tI2
tp2916
F-1.6862446179451955
s((I1
I0
I1
I1
I1
I0
I0
I1
tI3
tp2917
F-4.1278641413315702
s((I0
I1
I0
I0
I0
I0
I0
I0
tI0
tp2918
F-11.578856722547837
s((I0
I1
I1
I0
I1
I0
I2
I3
tI2
tp2919
I-100
s((I3
I1
I2
I0
I0
I1
I1
I1
tI5
tp2920
I50
s((I1
I0
I1
I1
I0
I1
I3
I0
tI0
tp2921
I-100
s((I1
I1
I3
I1
I0
I0
I2
I0
tI6
tp2922
I-100
s((I0
I0
I1
I0
I1
I0
I2
I1
tI5
tp2923
I-1
s((I1
I0
I3
I0
I1
I1
I1
I1
tI0
tp2924
F-4.2379763029880735
s((I1
I1
I1
I3
I0
I0
I1
I1
tI1
tp2925
I-100
s((I0
I1
I1
I3
I2
I0
I1
I0
tI4
tp2926
F49.740314491482565
s((I2
I1
I0
I0
I0
I1
I3
I1
tI5
tp2927
I-1
s((I1
I2
I3
I0
I0
I1
I1
I1
tI3
tp2928
I-100
s((I0
I1
I0
I3
I0
I0
I1
I0
tI7
tp2929
I-100
s((I1
I0
I0
I2
I1
I1
I0
I3
tI7
tp2930
I-100
s((I3
I0
I0
I1
I0
I1
I1
I1
tI3
tp2931
I-100
s((I0
I1
I1
I2
I3
I1
I1
I1
tI0
tp2932
F32.899999999999999
s((I1
I0
I1
I1
I0
I1
I0
I3
tI2
tp2933
I-100
s((I0
I0
I1
I0
I3
I2
I0
I1
tI1
tp2934
I50
s((I0
I0
I3
I1
I2
I1
I1
I1
tI4
tp2935
I-100
s((I3
I1
I0
I0
I0
I2
I1
I1
tI2
tp2936
I-100
s((I0
I0
I0
I0
I0
I1
I0
I0
tI7
tp2937
F-11.456324081953529
s((I3
I0
I1
I1
I1
I1
I2
I1
tI0
tp2938
I-100
s((I1
I3
I1
I1
I1
I0
I0
I1
tI1
tp2939
F-5.184227345971685
s((I0
I0
I1
I1
I0
I1
I1
I3
tI5
tp2940
I-100
s((I1
I1
I1
I1
I0
I3
I0
I0
tI7
tp2941
I-100
s((I3
I1
I0
I0
I0
I0
I1
I0
tI1
tp2942
F-4.5130665242919665
s((I0
I0
I0
I2
I0
I1
I1
I3
tI1
tp2943
I-100
s((I0
I0
I1
I1
I0
I1
I2
I0
tI5
tp2944
I-1
s((I1
I1
I0
I1
I0
I0
I0
I0
tI3
tp2945
F-2.9626724864423082
s((I1
I1
I1
I0
I2
I3
I1
I1
tI7
tp2946
I-100
s((I1
I1
I2
I0
I0
I0
I0
I1
tI6
tp2947
I-1
s((I3
I1
I1
I0
I0
I0
I1
I2
tI2
tp2948
I-100
s((I1
I0
I3
I0
I1
I1
I0
I0
tI4
tp2949
I-100
s((I1
I0
I3
I1
I0
I1
I0
I1
tI2
tp2950
F-4.3377502585275689
s((I1
I0
I0
I1
I0
I1
I0
I0
tI1
tp2951
F-3.966513097199706
s((I3
I0
I1
I0
I0
I0
I1
I1
tI6
tp2952
I-100
s((I0
I1
I3
I0
I0
I1
I1
I1
tI4
tp2953
I-100
s((I1
I3
I1
I1
I1
I1
I0
I1
tI2
tp2954
F-4.689580630365473
s((I0
I1
I1
I0
I1
I1
I0
I1
tI5
tp2955
F-3.0417375704765313
s((I0
I1
I1
I0
I3
I1
I0
I1
tI2
tp2956
I-100
s((I1
I0
I3
I2
I1
I1
I0
I0
tI2
tp2957
I-1
s((I0
I1
I2
I0
I0
I0
I1
I3
tI1
tp2958
I-1
s((I1
I1
I1
I0
I1
I1
I3
I1
tI2
tp2959
F-101.11619062820186
s((I0
I0
I0
I0
I0
I1
I1
I3
tI1
tp2960
I-100
s((I1
I0
I0
I1
I0
I1
I0
I1
tI5
tp2961
I-100
s((I0
I3
I1
I1
I0
I1
I1
I0
tI4
tp2962
I-100
s((I1
I0
I3
I1
I2
I0
I0
I1
tI3
tp2963
I-100
s((I1
I1
I1
I1
I0
I2
I0
I3
tI0
tp2964
I-100
s((I1
I0
I1
I1
I1
I1
I3
I1
tI6
tp2965
F-4.2560595809577713
s((I1
I1
I1
I1
I0
I0
I0
I0
tI5
tp2966
F-2.1232375258866383
s((I0
I3
I0
I0
I1
I0
I1
I1
tI7
tp2967
I-100
s((I1
I2
I1
I1
I1
I1
I3
I0
tI5
tp2968
I-100
s((I0
I0
I1
I1
I1
I1
I3
I1
tI4
tp2969
I-100
s((I0
I1
I0
I0
I0
I0
I3
I0
tI1
tp2970
I-100
s((I1
I0
I1
I1
I0
I1
I0
I3
tI5
tp2971
I-100
s((I1
I0
I0
I1
I0
I1
I2
I3
tI7
tp2972
I-100
s((I1
I0
I0
I1
I0
I0
I0
I1
tI1
tp2973
F-1.5152158213627858
s((I1
I1
I1
I0
I0
I3
I1
I0
tI6
tp2974
I-100
s((I0
I3
I1
I1
I0
I0
I0
I1
tI6
tp2975
I-100
s((I1
I1
I1
I0
I3
I0
I1
I1
tI6
tp2976
I-100
s((I0
I0
I3
I0
I1
I1
I0
I2
tI4
tp2977
I-100
s((I3
I2
I1
I1
I0
I1
I0
I0
tI7
tp2978
I-100
s((I1
I1
I1
I0
I1
I1
I0
I1
tI7
tp2979
F-19.161638249945916
s((I1
I0
I0
I1
I0
I1
I1
I0
tI1
tp2980
F-3.8598693035411205
s((I1
I0
I3
I1
I0
I1
I0
I1
tI5
tp2981
I-100
s((I3
I0
I1
I1
I2
I0
I0
I1
tI4
tp2982
F49.295659135675812
s((I1
I0
I1
I1
I0
I1
I1
I1
tI3
tp2983
F-18.50201229210008
s((I0
I0
I0
I0
I3
I1
I1
I0
tI7
tp2984
F-4.7198882127187343
s((I1
I1
I0
I1
I3
I0
I2
I1
tI4
tp2985
I-100
s((I1
I0
I0
I1
I1
I1
I0
I1
tI5
tp2986
F-10.990000000000002
s((I3
I0
I0
I2
I1
I1
I0
I0
tI6
tp2987
I-100
s((I1
I3
I1
I0
I0
I0
I1
I0
tI3
tp2988
F-4.3929336867970044
s((I0
I3
I1
I1
I0
I1
I1
I0
tI3
tp2989
F-5.2201234908655856
s((I1
I0
I0
I1
I1
I1
I3
I1
tI5
tp2990
F-3.2280331981820378
s((I1
I0
I0
I3
I1
I1
I1
I1
tI7
tp2991
I-100
s((I0
I3
I1
I1
I0
I1
I0
I2
tI2
tp2992
I-1
s((I1
I0
I0
I0
I0
I1
I1
I1
tI0
tp2993
F-4.4127099996963786
s((I0
I1
I0
I3
I2
I0
I1
I0
tI2
tp2994
I-100
s((I1
I0
I1
I3
I1
I0
I2
I1
tI5
tp2995
I-100
s((I0
I3
I0
I1
I0
I1
I1
I1
tI0
tp2996
F-101.13876477920718
s((I1
I1
I0
I0
I0
I0
I0
I1
tI0
tp2997
F-11.280442742681412
s((I1
I1
I1
I0
I1
I1
I0
I3
tI4
tp2998
I-100
s((I1
I1
I1
I3
I0
I0
I1
I0
tI3
tp2999
F-4.8152547713746703
s((I1
I3
I1
I1
I0
I1
I0
I2
tI6
tp3000
I-100
s((I1
I1
I0
I1
I0
I3
I0
I0
tI0
tp3001
I-100
s((I0
I0
I3
I0
I1
I1
I0
I2
tI5
tp3002
I-100
s((I0
I1
I0
I0
I0
I0
I1
I2
tI4
tp3003
I-1
s((I1
I1
I1
I3
I1
I1
I0
I1
tI5
tp3004
F-101.68783440942033
s((I0
I0
I0
I0
I1
I1
I3
I0
tI0
tp3005
I-100
s((I0
I3
I1
I0
I1
I0
I2
I1
tI2
tp3006
F40.943001308011141
s((I0
I0
I0
I1
I1
I3
I0
I1
tI7
tp3007
F-4.8319147855410707
s((I0
I0
I1
I1
I3
I0
I0
I1
tI4
tp3008
I-100
s((I3
I0
I2
I1
I0
I1
I1
I1
tI7
tp3009
I-100
s((I3
I1
I0
I0
I0
I1
I0
I1
tI0
tp3010
I-100
s((I0
I0
I2
I0
I1
I1
I0
I3
tI3
tp3011
I-100
s((I2
I0
I1
I1
I0
I1
I1
I3
tI6
tp3012
I-1
s((I1
I1
I3
I1
I2
I0
I0
I0
tI5
tp3013
I-100
s((I0
I0
I0
I0
I1
I0
I1
I1
tI7
tp3014
F-2.117475248175948
s((I1
I1
I1
I2
I1
I1
I0
I3
tI1
tp3015
I-100
s((I1
I1
I2
I0
I0
I0
I3
I1
tI3
tp3016
I-100
s((I1
I0
I1
I1
I0
I1
I1
I1
tI5
tp3017
F-18.795279685777572
s((I1
I0
I1
I1
I3
I1
I1
I1
tI0
tp3018
F-100.89578649193133
s((I1
I0
I0
I3
I1
I1
I0
I0
tI6
tp3019
I-100
s((I0
I2
I1
I1
I0
I1
I1
I3
tI2
tp3020
I-100
s((I1
I1
I1
I3
I0
I1
I1
I0
tI3
tp3021
F-4.2098904091053999
s((I1
I1
I1
I2
I3
I0
I0
I1
tI2
tp3022
I-100
s((I3
I0
I1
I1
I0
I1
I1
I2
tI5
tp3023
I-100
s((I3
I0
I0
I0
I0
I1
I1
I0
tI5
tp3024
F-3.6817304268010256
s((I0
I0
I3
I0
I1
I1
I2
I0
tI1
tp3025
I-100
s((I1
I0
I1
I1
I0
I1
I0
I0
tI0
tp3026
F-2.7181527731482555
s((I3
I1
I0
I0
I2
I1
I1
I1
tI4
tp3027
F49.546428454740848
s((I1
I2
I1
I1
I1
I1
I3
I0
tI4
tp3028
I-100
s((I1
I0
I0
I0
I0
I1
I1
I0
tI6
tp3029
F-1.7636270988559055
s((I1
I1
I0
I3
I2
I0
I0
I1
tI6
tp3030
I-100
s((I0
I3
I0
I1
I1
I0
I0
I2
tI6
tp3031
I-100
s((I0
I0
I1
I2
I0
I0
I1
I1
tI5
tp3032
I-1
s((I1
I0
I3
I1
I1
I1
I2
I1
tI3
tp3033
I-100
s((I0
I2
I0
I0
I3
I1
I1
I0
tI4
tp3034
I-100
s((I1
I0
I1
I1
I0
I1
I3
I1
tI1
tp3035
I-100
s((I0
I0
I3
I0
I1
I1
I2
I0
tI5
tp3036
I-100
s((I1
I2
I1
I0
I0
I0
I1
I3
tI1
tp3037
I-1
s((I1
I0
I1
I1
I3
I1
I1
I1
tI7
tp3038
F-100.14426446927432
s((I2
I0
I1
I1
I1
I1
I3
I1
tI2
tp3039
I-100
s((I1
I0
I0
I0
I2
I1
I1
I0
tI6
tp3040
I-1
s((I1
I3
I1
I1
I0
I1
I0
I0
tI3
tp3041
F-4.7054809800217656
s((I1
I0
I0
I0
I1
I1
I0
I3
tI4
tp3042
I-100
s((I0
I0
I1
I1
I0
I3
I0
I1
tI5
tp3043
I-100
s((I1
I0
I0
I1
I0
I0
I3
I1
tI1
tp3044
I-100
s((I1
I2
I0
I0
I1
I1
I0
I0
tI5
tp3045
I-1
s((I0
I1
I0
I2
I0
I3
I1
I0
tI6
tp3046
I-100
s((I3
I1
I2
I0
I0
I0
I1
I1
tI6
tp3047
I-100
s((I3
I0
I1
I0
I1
I0
I2
I1
tI3
tp3048
I-100
s((I3
I0
I1
I1
I0
I1
I0
I0
tI5
tp3049
I-100
s((I1
I0
I0
I1
I2
I0
I0
I1
tI3
tp3050
I-1
s((I0
I1
I0
I0
I0
I1
I3
I1
tI6
tp3051
I-100
s((I3
I1
I2
I0
I0
I1
I0
I1
tI2
tp3052
I-1
s((I0
I2
I1
I1
I0
I1
I0
I3
tI6
tp3053
I50
s((I0
I3
I1
I0
I0
I2
I1
I1
tI1
tp3054
F49.583008487141711
s((I1
I1
I1
I2
I0
I0
I1
I3
tI6
tp3055
I-100
s((I2
I1
I0
I0
I3
I0
I1
I0
tI5
tp3056
I-100
s((I0
I0
I1
I0
I0
I3
I1
I1
tI2
tp3057
I-100
s((I3
I1
I0
I0
I0
I0
I1
I1
tI7
tp3058
I-100
s((I1
I1
I0
I1
I0
I0
I0
I1
tI2
tp3059
F-1.4810609934765051
s((I1
I1
I0
I0
I0
I1
I1
I1
tI6
tp3060
F-4.1578157960948037
s((I0
I0
I3
I1
I1
I0
I2
I1
tI6
tp3061
I-100
s((I3
I2
I0
I0
I1
I1
I0
I0
tI1
tp3062
I-100
s((I3
I1
I1
I0
I1
I0
I0
I0
tI1
tp3063
F-4.3293314144948205
s((I1
I1
I1
I0
I0
I0
I1
I1
tI5
tp3064
F-2.9320954818278739
s((I1
I1
I1
I3
I1
I1
I0
I0
tI0
tp3065
I-100
s((I0
I0
I1
I1
I3
I1
I1
I0
tI6
tp3066
I-100
s((I1
I0
I1
I1
I1
I3
I0
I1
tI6
tp3067
F-4.6380256472951755
s((I3
I1
I2
I0
I0
I0
I0
I0
tI2
tp3068
I-1
s((I3
I1
I1
I0
I0
I1
I1
I1
tI3
tp3069
I-100
s((I1
I0
I0
I1
I0
I1
I1
I0
tI4
tp3070
F-3.1703676365144622
s((I0
I0
I3
I1
I1
I0
I0
I2
tI3
tp3071
I50
s((I1
I0
I0
I0
I1
I3
I1
I1
tI6
tp3072
F-4.2901449809626433
s((I1
I1
I1
I2
I3
I0
I0
I1
tI6
tp3073
I-100
s((I0
I0
I0
I0
I1
I3
I1
I1
tI0
tp3074
I-100
s((I1
I0
I1
I1
I1
I1
I3
I0
tI4
tp3075
I-100
s((I1
I1
I1
I0
I3
I0
I0
I1
tI5
tp3076
I-100
s((I0
I0
I0
I1
I1
I0
I0
I3
tI0
tp3077
I-100
s((I0
I0
I0
I1
I1
I3
I2
I1
tI0
tp3078
I-100
s((I1
I0
I3
I1
I0
I2
I0
I1
tI1
tp3079
I50
s((I0
I0
I3
I0
I1
I1
I0
I0
tI5
tp3080
I-100
s((I0
I2
I0
I1
I1
I3
I0
I0
tI0
tp3081
I-100
s((I1
I1
I1
I2
I3
I0
I0
I1
tI0
tp3082
F49.606435295161354
s((I0
I2
I0
I0
I1
I1
I3
I0
tI5
tp3083
I-1
s((I0
I0
I3
I2
I1
I0
I1
I1
tI4
tp3084
I-100
s((I1
I3
I1
I0
I1
I0
I1
I1
tI0
tp3085
I-100
s((I1
I0
I1
I0
I1
I3
I1
I1
tI5
tp3086
I-100
s((I1
I1
I1
I0
I0
I0
I0
I1
tI3
tp3087
F-10.70933929538251
s((I0
I1
I1
I0
I0
I0
I1
I0
tI6
tp3088
F-1.5779086424473685
s.